ARM GAS  C:\Users\Jack\AppData\Local\Temp\ccYWX8Tu.s 			page 1


   1              		.syntax unified
   2              		.cpu cortex-m0
   3              		.fpu softvfp
   4              		.eabi_attribute 20, 1
   5              		.eabi_attribute 21, 1
   6              		.eabi_attribute 23, 3
   7              		.eabi_attribute 24, 1
   8              		.eabi_attribute 25, 1
   9              		.eabi_attribute 26, 1
  10              		.eabi_attribute 30, 6
  11              		.eabi_attribute 34, 0
  12              		.eabi_attribute 18, 4
  13              		.thumb
  14              		.syntax unified
  15              		.file	"BLEApplications.c"
  16              		.text
  17              	.Ltext0:
  18              		.cfi_sections	.debug_frame
  19              		.comm	connectionHandle,2,4
  20              		.comm	rgbHandle,12,4
  21              		.global	sendCapSenseSliderNotifications
  22              		.bss
  23              		.type	sendCapSenseSliderNotifications, %object
  24              		.size	sendCapSenseSliderNotifications, 1
  25              	sendCapSenseSliderNotifications:
  26 0000 00       		.space	1
  27              		.global	rgbledNotifications
  28              		.type	rgbledNotifications, %object
  29              		.size	rgbledNotifications, 1
  30              	rgbledNotifications:
  31 0001 00       		.space	1
  32              		.comm	RGBledData,4,4
  33              		.global	deviceConnected
  34              		.type	deviceConnected, %object
  35              		.size	deviceConnected, 1
  36              	deviceConnected:
  37 0002 00       		.space	1
  38              		.global	restartAdvertisement
  39              		.type	restartAdvertisement, %object
  40              		.size	restartAdvertisement, 1
  41              	restartAdvertisement:
  42 0003 00       		.space	1
  43              		.global	enableCapSenseData
  44              		.type	enableCapSenseData, %object
  45              		.size	enableCapSenseData, 1
  46              	enableCapSenseData:
  47 0004 00       		.space	1
  48              		.data
  49              		.type	isConnectionUpdateRequested, %object
  50              		.size	isConnectionUpdateRequested, 1
  51              	isConnectionUpdateRequested:
  52 0000 01       		.byte	1
  53 0001 000000   		.align	2
  54              		.type	ConnectionParam, %object
  55              		.size	ConnectionParam, 8
  56              	ConnectionParam:
  57 0004 3200     		.short	50
ARM GAS  C:\Users\Jack\AppData\Local\Temp\ccYWX8Tu.s 			page 2


  58 0006 3400     		.short	52
  59 0008 0400     		.short	4
  60 000a C800     		.short	200
  61              		.global	shut_down_led
  62              		.type	shut_down_led, %object
  63              		.size	shut_down_led, 1
  64              	shut_down_led:
  65 000c 01       		.byte	1
  66              		.global	led_timer
  67              		.bss
  68              		.type	led_timer, %object
  69              		.size	led_timer, 1
  70              	led_timer:
  71 0005 00       		.space	1
  72              		.global	timer_tick
  73              		.type	timer_tick, %object
  74              		.size	timer_tick, 1
  75              	timer_tick:
  76 0006 00       		.space	1
  77              		.global	switch_off_status_led
  78              		.type	switch_off_status_led, %object
  79              		.size	switch_off_status_led, 1
  80              	switch_off_status_led:
  81 0007 00       		.space	1
  82              		.global	busyStatus
  83              		.type	busyStatus, %object
  84              		.size	busyStatus, 1
  85              	busyStatus:
  86 0008 00       		.space	1
  87              		.comm	CapSenseCCCDvalue,2,4
  88              		.comm	RGBCCCDvalue,2,4
  89              		.comm	CapSenseNotificationCCCDhandle,12,4
  90              		.comm	RGBNotificationCCCDhandle,12,4
  91              		.section	.text.CustomEventHandler,"ax",%progbits
  92              		.align	2
  93              		.global	CustomEventHandler
  94              		.code	16
  95              		.thumb_func
  96              		.type	CustomEventHandler, %function
  97              	CustomEventHandler:
  98              	.LFB35:
  99              		.file 1 "BLEApplications.c"
   1:BLEApplications.c **** /******************************************************************************
   2:BLEApplications.c **** * Project Name		: PSoC_4_BLE_CapSense_Slider_LED
   3:BLEApplications.c **** * File Name			: BLEApplications.c
   4:BLEApplications.c **** * Version 			: 1.0
   5:BLEApplications.c **** * Device Used		: CY8C4248LQI-BL583
   6:BLEApplications.c **** * Software Used		: PSoC Creator 4.2
   7:BLEApplications.c **** * Compiler    		: ARM GCC 5.4.1
   8:BLEApplications.c **** * Related Hardware	: CY8CKIT-042-BLE-A Bluetooth Low Energy Pioneer Kit
   9:BLEApplications.c **** ******************************************************************************
  10:BLEApplications.c **** * Copyright (2018), Cypress Semiconductor Corporation. All rights reserved.
  11:BLEApplications.c **** *******************************************************************************
  12:BLEApplications.c **** * This software, including source code, documentation and related materials
  13:BLEApplications.c **** * (“Software”), is owned by Cypress Semiconductor Corporation or one of its
  14:BLEApplications.c **** * subsidiaries (“Cypress”) and is protected by and subject to worldwide patent
  15:BLEApplications.c **** * protection (United States and foreign), United States copyright laws and
ARM GAS  C:\Users\Jack\AppData\Local\Temp\ccYWX8Tu.s 			page 3


  16:BLEApplications.c **** * international treaty provisions. Therefore, you may use this Software only
  17:BLEApplications.c **** * as provided in the license agreement accompanying the software package from
  18:BLEApplications.c **** * which you obtained this Software (“EULA”).
  19:BLEApplications.c **** *
  20:BLEApplications.c **** * If no EULA applies, Cypress hereby grants you a personal, nonexclusive,
  21:BLEApplications.c **** * non-transferable license to copy, modify, and compile the Software source
  22:BLEApplications.c **** * code solely for use in connection with Cypress’s integrated circuit products.
  23:BLEApplications.c **** * Any reproduction, modification, translation, compilation, or representation
  24:BLEApplications.c **** * of this Software except as specified above is prohibited without the express
  25:BLEApplications.c **** * written permission of Cypress.
  26:BLEApplications.c **** *
  27:BLEApplications.c **** * Disclaimer: THIS SOFTWARE IS PROVIDED AS-IS, WITH NO WARRANTY OF ANY KIND, 
  28:BLEApplications.c **** * EXPRESS OR IMPLIED, INCLUDING, BUT NOT LIMITED TO, NONINFRINGEMENT, IMPLIED 
  29:BLEApplications.c **** * WARRANTIES OF MERCHANTABILITY AND FITNESS FOR A PARTICULAR PURPOSE. Cypress 
  30:BLEApplications.c **** * reserves the right to make changes to the Software without notice. Cypress 
  31:BLEApplications.c **** * does not assume any liability arising out of the application or use of the 
  32:BLEApplications.c **** * Software or any product or circuit described in the Software. Cypress does 
  33:BLEApplications.c **** * not authorize its products for use in any products where a malfunction or 
  34:BLEApplications.c **** * failure of the Cypress product may reasonably be expected to result in 
  35:BLEApplications.c **** * significant property damage, injury or death (“High Risk Product”). By 
  36:BLEApplications.c **** * including Cypress’s product in a High Risk Product, the manufacturer of such 
  37:BLEApplications.c **** * system or application assumes all risk of such use and in doing so agrees to 
  38:BLEApplications.c **** * indemnify Cypress against all liability.
  39:BLEApplications.c **** *******************************************************************************/
  40:BLEApplications.c **** 
  41:BLEApplications.c **** #include <main.h>
  42:BLEApplications.c **** 
  43:BLEApplications.c **** /**************************Variable Declarations*****************************/
  44:BLEApplications.c **** /* 'connectionHandle' stores connection parameters */
  45:BLEApplications.c **** CYBLE_CONN_HANDLE_T  connectionHandle;
  46:BLEApplications.c **** 
  47:BLEApplications.c **** /* 'rgbHandle' stores RGB control data parameters */
  48:BLEApplications.c **** CYBLE_GATT_HANDLE_VALUE_PAIR_T		rgbHandle;	
  49:BLEApplications.c **** 
  50:BLEApplications.c **** /*This flag is set when the Central device writes to CCCD (Client Characteristic 
  51:BLEApplications.c **** * Configuration Descriptor) of the CapSense slider Characteristic to enable 
  52:BLEApplications.c **** * notifications */
  53:BLEApplications.c **** uint8 sendCapSenseSliderNotifications = FALSE;	
  54:BLEApplications.c **** 
  55:BLEApplications.c **** /*This flag is set when the Central device writes to CCCD of the 
  56:BLEApplications.c **** * RGB LED Characteristic to enable notifications */
  57:BLEApplications.c **** uint8 rgbledNotifications = FALSE;
  58:BLEApplications.c **** 
  59:BLEApplications.c **** /* Array to store the present RGB LED control data. The 4 bytes 
  60:BLEApplications.c **** * of the array represent {R,G,B,Intensity} */
  61:BLEApplications.c **** uint8 RGBledData[RGB_CHAR_DATA_LEN];
  62:BLEApplications.c **** 
  63:BLEApplications.c **** /* This flag is used by application to know whether a Central 
  64:BLEApplications.c **** * device has been connected. This is updated in BLE event callback 
  65:BLEApplications.c **** * function*/
  66:BLEApplications.c **** uint8 deviceConnected = FALSE;
  67:BLEApplications.c **** 
  68:BLEApplications.c **** /* 'restartAdvertisement' flag provides the present state of power mode in firmware */
  69:BLEApplications.c **** uint8 restartAdvertisement = FALSE;
  70:BLEApplications.c **** 
  71:BLEApplications.c **** /*'enableCapSenseData' flag is set after the Connection LED off status is received.
  72:BLEApplications.c ****   This flag ensures that the CapSense related scanning does not increase the loop 
ARM GAS  C:\Users\Jack\AppData\Local\Temp\ccYWX8Tu.s 			page 4


  73:BLEApplications.c ****   time of firmware, causing the LED to be always ON.*/
  74:BLEApplications.c **** uint8 enableCapSenseData = FALSE;	
  75:BLEApplications.c **** 
  76:BLEApplications.c **** /* This flag is used to let application send a L2CAP connection update request
  77:BLEApplications.c **** * to Central device */
  78:BLEApplications.c **** static uint8 isConnectionUpdateRequested = TRUE;
  79:BLEApplications.c **** 
  80:BLEApplications.c **** /* Connection Parameter update values. These values are used by the BLE component
  81:BLEApplications.c **** * to update the connection parameters, including connection interval, to desired 
  82:BLEApplications.c **** * value */
  83:BLEApplications.c **** static CYBLE_GAP_CONN_UPDATE_PARAM_T ConnectionParam =
  84:BLEApplications.c **** {
  85:BLEApplications.c ****     CONN_PARAM_UPDATE_MIN_CONN_INTERVAL,  		      
  86:BLEApplications.c ****     CONN_PARAM_UPDATE_MAX_CONN_INTERVAL,		       
  87:BLEApplications.c ****     CONN_PARAM_UPDATE_SLAVE_LATENCY,			    
  88:BLEApplications.c ****     CONN_PARAM_UPDATE_SUPRV_TIMEOUT 			         	
  89:BLEApplications.c **** };
  90:BLEApplications.c **** 
  91:BLEApplications.c **** /* This flag is used to switch between CPU Deep Sleep and Sleep, depending on
  92:BLEApplications.c **** * the status of RGB LED color values received. This method allows to conserve 
  93:BLEApplications.c **** * more power during LED usage */
  94:BLEApplications.c **** uint8 shut_down_led = TRUE;
  95:BLEApplications.c **** 
  96:BLEApplications.c **** /* Counter to keep the LED ON for a selected period before shutting the LEDs down */
  97:BLEApplications.c **** uint8 led_timer = FALSE;
  98:BLEApplications.c **** 
  99:BLEApplications.c **** /* Counter to allow an initial 3 second Status LED ON for indicating connection */
 100:BLEApplications.c **** uint8 timer_tick = FALSE;
 101:BLEApplications.c **** 
 102:BLEApplications.c **** /* Flag to switch off the LED after connection */
 103:BLEApplications.c **** uint8 switch_off_status_led = FALSE;
 104:BLEApplications.c **** 
 105:BLEApplications.c **** /* Status flag for the Stack Busy state. This flag is used to notify the application 
 106:BLEApplications.c **** * whether there is stack buffer free to push more data or not */
 107:BLEApplications.c **** uint8 busyStatus = 0;
 108:BLEApplications.c **** 
 109:BLEApplications.c **** /* Local variable to store the current CCCD value */
 110:BLEApplications.c **** uint8 CapSenseCCCDvalue[2];
 111:BLEApplications.c **** uint8 RGBCCCDvalue[2];
 112:BLEApplications.c **** 
 113:BLEApplications.c **** /* Handle value to update the CCCD */
 114:BLEApplications.c **** CYBLE_GATT_HANDLE_VALUE_PAIR_T CapSenseNotificationCCCDhandle;
 115:BLEApplications.c **** 
 116:BLEApplications.c **** /* Handle value to update the CCCD */
 117:BLEApplications.c **** CYBLE_GATT_HANDLE_VALUE_PAIR_T RGBNotificationCCCDhandle;
 118:BLEApplications.c **** 
 119:BLEApplications.c **** 
 120:BLEApplications.c **** /****************************************************************************/
 121:BLEApplications.c **** 
 122:BLEApplications.c **** /*******************************************************************************
 123:BLEApplications.c **** * Function Name: CustomEventHandler
 124:BLEApplications.c **** ********************************************************************************
 125:BLEApplications.c **** * Summary:
 126:BLEApplications.c **** *        Call back event function to handle various events from BLE stack
 127:BLEApplications.c **** *
 128:BLEApplications.c **** * Parameters:
 129:BLEApplications.c **** *  uint32 event:		event returned
ARM GAS  C:\Users\Jack\AppData\Local\Temp\ccYWX8Tu.s 			page 5


 130:BLEApplications.c **** *  void * eventParam:	link to value of the events returned
 131:BLEApplications.c **** *
 132:BLEApplications.c **** * Return:
 133:BLEApplications.c **** *  void
 134:BLEApplications.c **** *
 135:BLEApplications.c **** *******************************************************************************/
 136:BLEApplications.c **** void CustomEventHandler(uint32 event, void * eventParam)
 137:BLEApplications.c **** {
 100              		.loc 1 137 0
 101              		.cfi_startproc
 102              		@ args = 0, pretend = 0, frame = 16
 103              		@ frame_needed = 1, uses_anonymous_args = 0
 104 0000 80B5     		push	{r7, lr}
 105              		.cfi_def_cfa_offset 8
 106              		.cfi_offset 7, -8
 107              		.cfi_offset 14, -4
 108 0002 84B0     		sub	sp, sp, #16
 109              		.cfi_def_cfa_offset 24
 110 0004 00AF     		add	r7, sp, #0
 111              		.cfi_def_cfa_register 7
 112 0006 7860     		str	r0, [r7, #4]
 113 0008 3960     		str	r1, [r7]
 138:BLEApplications.c **** 	/* Local variable to store the data received as part of the Write request 
 139:BLEApplications.c **** 	* events */
 140:BLEApplications.c **** 	CYBLE_GATTS_WRITE_REQ_PARAM_T *wrReqParam;
 141:BLEApplications.c **** 
 142:BLEApplications.c ****     switch(event)
 114              		.loc 1 142 0
 115 000a 7B68     		ldr	r3, [r7, #4]
 116 000c 272B     		cmp	r3, #39
 117 000e 00D1     		bne	.LCB16
 118 0010 14E1     		b	.L25	@long jump
 119              	.LCB16:
 120 0012 0CD8     		bhi	.L4
 121 0014 022B     		cmp	r3, #2
 122 0016 00D1     		bne	.LCB20
 123 0018 12E1     		b	.L26	@long jump
 124              	.LCB20:
 125 001a 02D8     		bhi	.L6
 126 001c 012B     		cmp	r3, #1
 127 001e 14D0     		beq	.L7
 143:BLEApplications.c ****     {
 144:BLEApplications.c ****         case CYBLE_EVT_STACK_ON:
 145:BLEApplications.c **** 			/* This event is received when component is Started */
 146:BLEApplications.c **** 			
 147:BLEApplications.c **** 			/* Set restartAdvertisement flag to allow calling Advertisement 
 148:BLEApplications.c **** 			* API from main function */
 149:BLEApplications.c **** 			restartAdvertisement = TRUE;
 150:BLEApplications.c **** 			
 151:BLEApplications.c **** 			break;
 152:BLEApplications.c **** 			
 153:BLEApplications.c **** 		case CYBLE_EVT_TIMEOUT:
 154:BLEApplications.c **** 			/* Event Handling for Timeout  */
 155:BLEApplications.c **** 	
 156:BLEApplications.c **** 			break;
 157:BLEApplications.c ****         
 158:BLEApplications.c **** 		/**********************************************************
ARM GAS  C:\Users\Jack\AppData\Local\Temp\ccYWX8Tu.s 			page 6


 159:BLEApplications.c ****         *                       GAP Events
 160:BLEApplications.c ****         ***********************************************************/
 161:BLEApplications.c **** 		case CYBLE_EVT_GAPP_ADVERTISEMENT_START_STOP:
 162:BLEApplications.c **** 			
 163:BLEApplications.c **** 			/* If the current BLE state is Disconnected, then the Advertisement
 164:BLEApplications.c **** 			* Start Stop event implies that advertisement has stopped */
 165:BLEApplications.c **** 			if(CyBle_GetState() == CYBLE_STATE_DISCONNECTED)
 166:BLEApplications.c **** 			{
 167:BLEApplications.c **** 				/* Set restartAdvertisement flag to allow calling Advertisement 
 168:BLEApplications.c **** 				* API from main function */
 169:BLEApplications.c **** 				restartAdvertisement = TRUE;
 170:BLEApplications.c **** 			}
 171:BLEApplications.c **** 			break;
 172:BLEApplications.c **** 			
 173:BLEApplications.c **** 		case CYBLE_EVT_GAP_DEVICE_CONNECTED: 					
 174:BLEApplications.c **** 			/* This event is received when device is connected over GAP layer */
 175:BLEApplications.c **** 			break;
 176:BLEApplications.c **** 
 177:BLEApplications.c **** 			
 178:BLEApplications.c ****         case CYBLE_EVT_GAP_DEVICE_DISCONNECTED:
 179:BLEApplications.c **** 			/* This event is received when device is disconnected */
 180:BLEApplications.c **** 			
 181:BLEApplications.c **** 			/* Set restartAdvertisement flag to allow calling Advertisement 
 182:BLEApplications.c **** 			* API from main function */
 183:BLEApplications.c **** 			restartAdvertisement = TRUE;
 184:BLEApplications.c **** 			
 185:BLEApplications.c **** 			/* Set flag to allow system to go to Deep Sleep */
 186:BLEApplications.c **** 			shut_down_led = TRUE;
 187:BLEApplications.c **** 			break;
 188:BLEApplications.c ****         
 189:BLEApplications.c **** 		/**********************************************************
 190:BLEApplications.c ****         *                       GATT Events
 191:BLEApplications.c ****         ***********************************************************/
 192:BLEApplications.c ****         case CYBLE_EVT_GATT_CONNECT_IND:
 193:BLEApplications.c **** 			/* This event is received when device is connected over GATT level */
 194:BLEApplications.c **** 			
 195:BLEApplications.c **** 			/* Update attribute handle on GATT Connection*/
 196:BLEApplications.c ****             connectionHandle = *(CYBLE_CONN_HANDLE_T  *)eventParam;
 197:BLEApplications.c **** 			
 198:BLEApplications.c **** 			/* This flag is used in application to check connection status */
 199:BLEApplications.c **** 			deviceConnected = TRUE;
 200:BLEApplications.c **** 			break;
 201:BLEApplications.c ****         
 202:BLEApplications.c ****         case CYBLE_EVT_GATT_DISCONNECT_IND:
 203:BLEApplications.c **** 			/* This event is received when device is disconnected */
 204:BLEApplications.c **** 			
 205:BLEApplications.c **** 			/* Update deviceConnected flag*/
 206:BLEApplications.c **** 			deviceConnected = FALSE;
 207:BLEApplications.c **** 			
 208:BLEApplications.c **** 			/* Reset CapSense notification flag to prevent further notifications
 209:BLEApplications.c **** 			 * being sent to Central device after next connection. */
 210:BLEApplications.c **** 			sendCapSenseSliderNotifications = FALSE;
 211:BLEApplications.c **** 			
 212:BLEApplications.c **** 			/* Reset RGB notification flag to prevent further notifications
 213:BLEApplications.c **** 			 * being sent to Central device after next connection. */
 214:BLEApplications.c **** 			rgbledNotifications = FALSE;
 215:BLEApplications.c **** 			
ARM GAS  C:\Users\Jack\AppData\Local\Temp\ccYWX8Tu.s 			page 7


 216:BLEApplications.c **** 			/* Reset the CCCD value to disable notifications */
 217:BLEApplications.c ****     		/* Write the present CapSense notification status to the local variable */
 218:BLEApplications.c ****     		CapSenseCCCDvalue[0] = sendCapSenseSliderNotifications;
 219:BLEApplications.c ****     		CapSenseCCCDvalue[1] = 0x00;
 220:BLEApplications.c ****     		
 221:BLEApplications.c ****     		/* Update CCCD handle with notification status data*/
 222:BLEApplications.c ****     		CapSenseNotificationCCCDhandle.attrHandle = CYBLE_CAPSENSE_CAPSENSE_SLIDER_CLIENT_CHARACTERIS
 223:BLEApplications.c ****     		CapSenseNotificationCCCDhandle.value.val = CapSenseCCCDvalue;
 224:BLEApplications.c ****     		CapSenseNotificationCCCDhandle.value.len = CCCD_DATA_LEN;
 225:BLEApplications.c ****     		
 226:BLEApplications.c ****     		/* Report data to BLE component for sending data when read by Central device */
 227:BLEApplications.c ****     		CyBle_GattsWriteAttributeValue(&CapSenseNotificationCCCDhandle, ZERO, &connectionHandle, CYBL
 228:BLEApplications.c **** 		
 229:BLEApplications.c ****     		/* Write the present RGB notification status to the local variable */
 230:BLEApplications.c ****     		RGBCCCDvalue[0] = rgbledNotifications;
 231:BLEApplications.c ****     		RGBCCCDvalue[1] = 0x00;
 232:BLEApplications.c ****     		
 233:BLEApplications.c ****     		/* Update CCCD handle with notification status data*/
 234:BLEApplications.c ****     		RGBNotificationCCCDhandle.attrHandle = CYBLE_RGB_LED_RGB_LED_CONTROL_CLIENT_CHARACTERISTIC_CO
 235:BLEApplications.c ****     		RGBNotificationCCCDhandle.value.val = RGBCCCDvalue;
 236:BLEApplications.c ****     		RGBNotificationCCCDhandle.value.len = CCCD_DATA_LEN;
 237:BLEApplications.c ****     		
 238:BLEApplications.c ****     		/* Report data to BLE component for sending data when read by Central device */
 239:BLEApplications.c ****     		CyBle_GattsWriteAttributeValue(&RGBNotificationCCCDhandle, ZERO, &connectionHandle, CYBLE_GAT
 240:BLEApplications.c **** 			
 241:BLEApplications.c **** 			/* Reset the color coordinates */
 242:BLEApplications.c **** 			RGBledData[RED_INDEX] = ZERO;
 243:BLEApplications.c ****             RGBledData[GREEN_INDEX] = ZERO;
 244:BLEApplications.c ****             RGBledData[BLUE_INDEX] = ZERO;
 245:BLEApplications.c ****             RGBledData[INTENSITY_INDEX] = ZERO;
 246:BLEApplications.c **** 			UpdateRGBled();
 247:BLEApplications.c **** 
 248:BLEApplications.c **** 			/* Reset the isConnectionUpdateRequested flag to allow sending
 249:BLEApplications.c **** 			* connection parameter update request in next connection */
 250:BLEApplications.c **** 			isConnectionUpdateRequested = TRUE;
 251:BLEApplications.c **** 			
 252:BLEApplications.c **** 			/* Set the flag to allow system to go to Deep Sleep */
 253:BLEApplications.c **** 			shut_down_led = TRUE;
 254:BLEApplications.c **** 			
 255:BLEApplications.c **** 			break;
 256:BLEApplications.c ****             
 257:BLEApplications.c ****         case CYBLE_EVT_GATTS_WRITE_REQ:
 258:BLEApplications.c **** 			/* This event is received when Central device sends a Write command on an Attribute */
 259:BLEApplications.c ****             wrReqParam = (CYBLE_GATTS_WRITE_REQ_PARAM_T *) eventParam;
 260:BLEApplications.c ****             
 261:BLEApplications.c **** 			/* When this event is triggered, the peripheral has received a write command on the custom chara
 262:BLEApplications.c **** 			/* Check if command is for correct attribute and update the flag for sending Notifications */
 263:BLEApplications.c ****             if(CYBLE_CAPSENSE_CAPSENSE_SLIDER_CLIENT_CHARACTERISTIC_CONFIGURATION_DESC_HANDLE == wr
 264:BLEApplications.c **** 			{
 265:BLEApplications.c **** 				/* Extract the Write value sent by the Client for CapSense Slider CCCD */
 266:BLEApplications.c ****                 if(wrReqParam->handleValPair.value.val[CYBLE_CAPSENSE_CAPSENSE_SLIDER_CLIENT_CHARAC
 267:BLEApplications.c ****                 {
 268:BLEApplications.c ****                     sendCapSenseSliderNotifications = TRUE;
 269:BLEApplications.c ****                 }
 270:BLEApplications.c ****                 else if(wrReqParam->handleValPair.value.val[CYBLE_CAPSENSE_CAPSENSE_SLIDER_CLIENT_C
 271:BLEApplications.c ****                 {
 272:BLEApplications.c ****                     sendCapSenseSliderNotifications = FALSE;
ARM GAS  C:\Users\Jack\AppData\Local\Temp\ccYWX8Tu.s 			page 8


 273:BLEApplications.c ****                 }
 274:BLEApplications.c **** 				
 275:BLEApplications.c ****         		/* Write the present CapSense notification status to the local variable */
 276:BLEApplications.c ****         		CapSenseCCCDvalue[0] = sendCapSenseSliderNotifications;
 277:BLEApplications.c ****         		CapSenseCCCDvalue[1] = 0x00;
 278:BLEApplications.c ****         		
 279:BLEApplications.c ****         		/* Update CCCD handle with notification status data*/
 280:BLEApplications.c ****         		CapSenseNotificationCCCDhandle.attrHandle = CYBLE_CAPSENSE_CAPSENSE_SLIDER_CLIENT_CHARACT
 281:BLEApplications.c ****         		CapSenseNotificationCCCDhandle.value.val = CapSenseCCCDvalue;
 282:BLEApplications.c ****         		CapSenseNotificationCCCDhandle.value.len = CCCD_DATA_LEN;
 283:BLEApplications.c ****         		
 284:BLEApplications.c ****         		/* Report data to BLE component for sending data when read by Central device */
 285:BLEApplications.c ****         		CyBle_GattsWriteAttributeValue(&CapSenseNotificationCCCDhandle, ZERO, &connectionHandle, 
 286:BLEApplications.c ****             }
 287:BLEApplications.c **** 			
 288:BLEApplications.c **** 			if(CYBLE_RGB_LED_RGB_LED_CONTROL_CLIENT_CHARACTERISTIC_CONFIGURATION_DESC_HANDLE == wrReqParam->
 289:BLEApplications.c ****             {
 290:BLEApplications.c **** 				/* Extract the Write value sent by the Client for RGB LED CCCD */
 291:BLEApplications.c ****                 if(wrReqParam->handleValPair.value.val[CYBLE_RGB_LED_RGB_LED_CONTROL_CLIENT_CHARACT
 292:BLEApplications.c ****                 {
 293:BLEApplications.c ****                     rgbledNotifications = TRUE;
 294:BLEApplications.c ****                 }
 295:BLEApplications.c ****                 else if(wrReqParam->handleValPair.value.val[CYBLE_RGB_LED_RGB_LED_CONTROL_CLIENT_CH
 296:BLEApplications.c ****                 {
 297:BLEApplications.c ****                     rgbledNotifications = FALSE;
 298:BLEApplications.c ****                 }
 299:BLEApplications.c **** 				
 300:BLEApplications.c ****         		/* Write the present RGB notification status to the local variable */
 301:BLEApplications.c ****         		RGBCCCDvalue[0] = rgbledNotifications;
 302:BLEApplications.c ****         		RGBCCCDvalue[1] = 0x00;
 303:BLEApplications.c ****         		
 304:BLEApplications.c ****         		/* Update CCCD handle with notification status data*/
 305:BLEApplications.c ****         		RGBNotificationCCCDhandle.attrHandle = CYBLE_RGB_LED_RGB_LED_CONTROL_CLIENT_CHARACTERISTI
 306:BLEApplications.c ****         		RGBNotificationCCCDhandle.value.val = RGBCCCDvalue;
 307:BLEApplications.c ****         		RGBNotificationCCCDhandle.value.len = CCCD_DATA_LEN;
 308:BLEApplications.c ****         		
 309:BLEApplications.c ****         		/* Report data to BLE component for sending data when read by Central device */
 310:BLEApplications.c ****         		CyBle_GattsWriteAttributeValue(&RGBNotificationCCCDhandle, ZERO, &connectionHandle, CYBLE
 311:BLEApplications.c **** 				
 312:BLEApplications.c **** 				/* Update the RGB LED Notification attribute with new color coordinates */
 313:BLEApplications.c **** 				SendDataOverRGBledNotification(RGBledData, RGB_CHAR_DATA_LEN);
 314:BLEApplications.c ****             }
 315:BLEApplications.c **** 			
 316:BLEApplications.c **** 			/* Check if the returned handle is matching to RGB LED Control Write Attribute and extract the R
 317:BLEApplications.c ****             if(CYBLE_RGB_LED_RGB_LED_CONTROL_CHAR_HANDLE == wrReqParam->handleValPair.attrHandle)
 318:BLEApplications.c ****             {
 319:BLEApplications.c **** 				/* Extract the Write value sent by the Client for RGB LED Color characteristic */
 320:BLEApplications.c ****                 RGBledData[RED_INDEX] = wrReqParam->handleValPair.value.val[RED_INDEX];
 321:BLEApplications.c ****                 RGBledData[GREEN_INDEX] = wrReqParam->handleValPair.value.val[GREEN_INDEX];
 322:BLEApplications.c ****                 RGBledData[BLUE_INDEX] = wrReqParam->handleValPair.value.val[BLUE_INDEX];
 323:BLEApplications.c ****                 RGBledData[INTENSITY_INDEX] = wrReqParam->handleValPair.value.val[INTENSITY_INDEX];
 324:BLEApplications.c ****                 
 325:BLEApplications.c **** 				/* Update the PrISM components and the attribute for RGB LED read characteristics*/
 326:BLEApplications.c ****                 UpdateRGBled();
 327:BLEApplications.c ****             }
 328:BLEApplications.c **** 			
 329:BLEApplications.c **** 			/* Send the response to the write request received. */
ARM GAS  C:\Users\Jack\AppData\Local\Temp\ccYWX8Tu.s 			page 9


 330:BLEApplications.c **** 			CyBle_GattsWriteRsp(connectionHandle);
 331:BLEApplications.c **** 			
 332:BLEApplications.c **** 			break;
 333:BLEApplications.c **** 			
 334:BLEApplications.c **** 		case CYBLE_EVT_L2CAP_CONN_PARAM_UPDATE_RSP:
 335:BLEApplications.c **** 				/* If L2CAP connection parameter update response received, reset application flag */
 336:BLEApplications.c ****             	isConnectionUpdateRequested = FALSE;
 337:BLEApplications.c ****             break;
 338:BLEApplications.c **** 			
 339:BLEApplications.c **** 		case CYBLE_EVT_STACK_BUSY_STATUS:
 340:BLEApplications.c **** 			/* This event is generated when the internal stack buffer is full and no more
 341:BLEApplications.c **** 			* data can be accepted or the stack has buffer available and can accept data.
 342:BLEApplications.c **** 			* This event is used by application to prevent pushing lot of data to stack. */
 343:BLEApplications.c **** 			
 344:BLEApplications.c **** 			/* Extract the present stack status */
 345:BLEApplications.c ****             busyStatus = * (uint8*)eventParam;
 346:BLEApplications.c ****             break;
 347:BLEApplications.c **** 			
 348:BLEApplications.c ****         default:
 349:BLEApplications.c **** 
 350:BLEApplications.c ****        	 	break;
 128              		.loc 1 350 0
 129 0020 11E1     		b	.L16
 130              	.L6:
 142:BLEApplications.c ****     {
 131              		.loc 1 142 0
 132 0022 052B     		cmp	r3, #5
 133 0024 00D1     		bne	.LCB30
 134 0026 04E1     		b	.L8	@long jump
 135              	.LCB30:
 136 0028 262B     		cmp	r3, #38
 137 002a 12D0     		beq	.L9
 138              		.loc 1 350 0
 139 002c 0BE1     		b	.L16
 140              	.L4:
 142:BLEApplications.c ****     {
 141              		.loc 1 142 0
 142 002e 422B     		cmp	r3, #66
 143 0030 2BD0     		beq	.L10
 144 0032 04D8     		bhi	.L11
 145 0034 282B     		cmp	r3, #40
 146 0036 15D0     		beq	.L12
 147 0038 412B     		cmp	r3, #65
 148 003a 1AD0     		beq	.L13
 149              		.loc 1 350 0
 150 003c 03E1     		b	.L16
 151              	.L11:
 142:BLEApplications.c ****     {
 152              		.loc 1 142 0
 153 003e 4C2B     		cmp	r3, #76
 154 0040 6DD0     		beq	.L14
 155 0042 712B     		cmp	r3, #113
 156 0044 00D1     		bne	.LCB52
 157 0046 F0E0     		b	.L15	@long jump
 158              	.LCB52:
 159              		.loc 1 350 0
 160 0048 FDE0     		b	.L16
ARM GAS  C:\Users\Jack\AppData\Local\Temp\ccYWX8Tu.s 			page 10


 161              	.L7:
 149:BLEApplications.c **** 			
 162              		.loc 1 149 0
 163 004a 814B     		ldr	r3, .L28
 164 004c 0122     		movs	r2, #1
 165 004e 1A70     		strb	r2, [r3]
 151:BLEApplications.c **** 			
 166              		.loc 1 151 0
 167 0050 F9E0     		b	.L16
 168              	.L9:
 165:BLEApplications.c **** 			{
 169              		.loc 1 165 0
 170 0052 804B     		ldr	r3, .L28+4
 171 0054 1B78     		ldrb	r3, [r3]
 172 0056 042B     		cmp	r3, #4
 173 0058 00D0     		beq	.LCB67
 174 005a F3E0     		b	.L27	@long jump
 175              	.LCB67:
 169:BLEApplications.c **** 			}
 176              		.loc 1 169 0
 177 005c 7C4B     		ldr	r3, .L28
 178 005e 0122     		movs	r2, #1
 179 0060 1A70     		strb	r2, [r3]
 171:BLEApplications.c **** 			
 180              		.loc 1 171 0
 181 0062 EFE0     		b	.L27
 182              	.L12:
 183:BLEApplications.c **** 			
 183              		.loc 1 183 0
 184 0064 7A4B     		ldr	r3, .L28
 185 0066 0122     		movs	r2, #1
 186 0068 1A70     		strb	r2, [r3]
 186:BLEApplications.c **** 			break;
 187              		.loc 1 186 0
 188 006a 7B4B     		ldr	r3, .L28+8
 189 006c 0122     		movs	r2, #1
 190 006e 1A70     		strb	r2, [r3]
 187:BLEApplications.c ****         
 191              		.loc 1 187 0
 192 0070 E9E0     		b	.L16
 193              	.L13:
 196:BLEApplications.c **** 			
 194              		.loc 1 196 0
 195 0072 7A4A     		ldr	r2, .L28+12
 196 0074 3B68     		ldr	r3, [r7]
 197 0076 1000     		movs	r0, r2
 198 0078 1900     		movs	r1, r3
 199 007a 0223     		movs	r3, #2
 200 007c 1A00     		movs	r2, r3
 201 007e FFF7FEFF 		bl	memcpy
 199:BLEApplications.c **** 			break;
 202              		.loc 1 199 0
 203 0082 774B     		ldr	r3, .L28+16
 204 0084 0122     		movs	r2, #1
 205 0086 1A70     		strb	r2, [r3]
 200:BLEApplications.c ****         
 206              		.loc 1 200 0
ARM GAS  C:\Users\Jack\AppData\Local\Temp\ccYWX8Tu.s 			page 11


 207 0088 DDE0     		b	.L16
 208              	.L10:
 206:BLEApplications.c **** 			
 209              		.loc 1 206 0
 210 008a 754B     		ldr	r3, .L28+16
 211 008c 0022     		movs	r2, #0
 212 008e 1A70     		strb	r2, [r3]
 210:BLEApplications.c **** 			
 213              		.loc 1 210 0
 214 0090 744B     		ldr	r3, .L28+20
 215 0092 0022     		movs	r2, #0
 216 0094 1A70     		strb	r2, [r3]
 214:BLEApplications.c **** 			
 217              		.loc 1 214 0
 218 0096 744B     		ldr	r3, .L28+24
 219 0098 0022     		movs	r2, #0
 220 009a 1A70     		strb	r2, [r3]
 218:BLEApplications.c ****     		CapSenseCCCDvalue[1] = 0x00;
 221              		.loc 1 218 0
 222 009c 714B     		ldr	r3, .L28+20
 223 009e 1A78     		ldrb	r2, [r3]
 224 00a0 724B     		ldr	r3, .L28+28
 225 00a2 1A70     		strb	r2, [r3]
 219:BLEApplications.c ****     		
 226              		.loc 1 219 0
 227 00a4 714B     		ldr	r3, .L28+28
 228 00a6 0022     		movs	r2, #0
 229 00a8 5A70     		strb	r2, [r3, #1]
 222:BLEApplications.c ****     		CapSenseNotificationCCCDhandle.value.val = CapSenseCCCDvalue;
 230              		.loc 1 222 0
 231 00aa 714B     		ldr	r3, .L28+32
 232 00ac 0F22     		movs	r2, #15
 233 00ae 1A81     		strh	r2, [r3, #8]
 223:BLEApplications.c ****     		CapSenseNotificationCCCDhandle.value.len = CCCD_DATA_LEN;
 234              		.loc 1 223 0
 235 00b0 6F4B     		ldr	r3, .L28+32
 236 00b2 6E4A     		ldr	r2, .L28+28
 237 00b4 1A60     		str	r2, [r3]
 224:BLEApplications.c ****     		
 238              		.loc 1 224 0
 239 00b6 6E4B     		ldr	r3, .L28+32
 240 00b8 0222     		movs	r2, #2
 241 00ba 9A80     		strh	r2, [r3, #4]
 227:BLEApplications.c **** 		
 242              		.loc 1 227 0
 243 00bc 674A     		ldr	r2, .L28+12
 244 00be 6C48     		ldr	r0, .L28+32
 245 00c0 4023     		movs	r3, #64
 246 00c2 0021     		movs	r1, #0
 247 00c4 FFF7FEFF 		bl	CyBle_GattsWriteAttributeValue
 230:BLEApplications.c ****     		RGBCCCDvalue[1] = 0x00;
 248              		.loc 1 230 0
 249 00c8 674B     		ldr	r3, .L28+24
 250 00ca 1A78     		ldrb	r2, [r3]
 251 00cc 694B     		ldr	r3, .L28+36
 252 00ce 1A70     		strb	r2, [r3]
 231:BLEApplications.c ****     		
ARM GAS  C:\Users\Jack\AppData\Local\Temp\ccYWX8Tu.s 			page 12


 253              		.loc 1 231 0
 254 00d0 684B     		ldr	r3, .L28+36
 255 00d2 0022     		movs	r2, #0
 256 00d4 5A70     		strb	r2, [r3, #1]
 234:BLEApplications.c ****     		RGBNotificationCCCDhandle.value.val = RGBCCCDvalue;
 257              		.loc 1 234 0
 258 00d6 684B     		ldr	r3, .L28+40
 259 00d8 1422     		movs	r2, #20
 260 00da 1A81     		strh	r2, [r3, #8]
 235:BLEApplications.c ****     		RGBNotificationCCCDhandle.value.len = CCCD_DATA_LEN;
 261              		.loc 1 235 0
 262 00dc 664B     		ldr	r3, .L28+40
 263 00de 654A     		ldr	r2, .L28+36
 264 00e0 1A60     		str	r2, [r3]
 236:BLEApplications.c ****     		
 265              		.loc 1 236 0
 266 00e2 654B     		ldr	r3, .L28+40
 267 00e4 0222     		movs	r2, #2
 268 00e6 9A80     		strh	r2, [r3, #4]
 239:BLEApplications.c **** 			
 269              		.loc 1 239 0
 270 00e8 5C4A     		ldr	r2, .L28+12
 271 00ea 6348     		ldr	r0, .L28+40
 272 00ec 4023     		movs	r3, #64
 273 00ee 0021     		movs	r1, #0
 274 00f0 FFF7FEFF 		bl	CyBle_GattsWriteAttributeValue
 242:BLEApplications.c ****             RGBledData[GREEN_INDEX] = ZERO;
 275              		.loc 1 242 0
 276 00f4 614B     		ldr	r3, .L28+44
 277 00f6 0022     		movs	r2, #0
 278 00f8 1A70     		strb	r2, [r3]
 243:BLEApplications.c ****             RGBledData[BLUE_INDEX] = ZERO;
 279              		.loc 1 243 0
 280 00fa 604B     		ldr	r3, .L28+44
 281 00fc 0022     		movs	r2, #0
 282 00fe 5A70     		strb	r2, [r3, #1]
 244:BLEApplications.c ****             RGBledData[INTENSITY_INDEX] = ZERO;
 283              		.loc 1 244 0
 284 0100 5E4B     		ldr	r3, .L28+44
 285 0102 0022     		movs	r2, #0
 286 0104 9A70     		strb	r2, [r3, #2]
 245:BLEApplications.c **** 			UpdateRGBled();
 287              		.loc 1 245 0
 288 0106 5D4B     		ldr	r3, .L28+44
 289 0108 0022     		movs	r2, #0
 290 010a DA70     		strb	r2, [r3, #3]
 246:BLEApplications.c **** 
 291              		.loc 1 246 0
 292 010c FFF7FEFF 		bl	UpdateRGBled
 250:BLEApplications.c **** 			
 293              		.loc 1 250 0
 294 0110 5B4B     		ldr	r3, .L28+48
 295 0112 0122     		movs	r2, #1
 296 0114 1A70     		strb	r2, [r3]
 253:BLEApplications.c **** 			
 297              		.loc 1 253 0
 298 0116 504B     		ldr	r3, .L28+8
ARM GAS  C:\Users\Jack\AppData\Local\Temp\ccYWX8Tu.s 			page 13


 299 0118 0122     		movs	r2, #1
 300 011a 1A70     		strb	r2, [r3]
 255:BLEApplications.c ****             
 301              		.loc 1 255 0
 302 011c 93E0     		b	.L16
 303              	.L14:
 259:BLEApplications.c ****             
 304              		.loc 1 259 0
 305 011e 3B68     		ldr	r3, [r7]
 306 0120 FB60     		str	r3, [r7, #12]
 263:BLEApplications.c **** 			{
 307              		.loc 1 263 0
 308 0122 FB68     		ldr	r3, [r7, #12]
 309 0124 9B89     		ldrh	r3, [r3, #12]
 310 0126 0F2B     		cmp	r3, #15
 311 0128 26D1     		bne	.L18
 266:BLEApplications.c ****                 {
 312              		.loc 1 266 0
 313 012a FB68     		ldr	r3, [r7, #12]
 314 012c 5B68     		ldr	r3, [r3, #4]
 315 012e 1B78     		ldrb	r3, [r3]
 316 0130 012B     		cmp	r3, #1
 317 0132 03D1     		bne	.L19
 268:BLEApplications.c ****                 }
 318              		.loc 1 268 0
 319 0134 4B4B     		ldr	r3, .L28+20
 320 0136 0122     		movs	r2, #1
 321 0138 1A70     		strb	r2, [r3]
 322 013a 07E0     		b	.L20
 323              	.L19:
 270:BLEApplications.c ****                 {
 324              		.loc 1 270 0
 325 013c FB68     		ldr	r3, [r7, #12]
 326 013e 5B68     		ldr	r3, [r3, #4]
 327 0140 1B78     		ldrb	r3, [r3]
 328 0142 002B     		cmp	r3, #0
 329 0144 02D1     		bne	.L20
 272:BLEApplications.c ****                 }
 330              		.loc 1 272 0
 331 0146 474B     		ldr	r3, .L28+20
 332 0148 0022     		movs	r2, #0
 333 014a 1A70     		strb	r2, [r3]
 334              	.L20:
 276:BLEApplications.c ****         		CapSenseCCCDvalue[1] = 0x00;
 335              		.loc 1 276 0
 336 014c 454B     		ldr	r3, .L28+20
 337 014e 1A78     		ldrb	r2, [r3]
 338 0150 464B     		ldr	r3, .L28+28
 339 0152 1A70     		strb	r2, [r3]
 277:BLEApplications.c ****         		
 340              		.loc 1 277 0
 341 0154 454B     		ldr	r3, .L28+28
 342 0156 0022     		movs	r2, #0
 343 0158 5A70     		strb	r2, [r3, #1]
 280:BLEApplications.c ****         		CapSenseNotificationCCCDhandle.value.val = CapSenseCCCDvalue;
 344              		.loc 1 280 0
 345 015a 454B     		ldr	r3, .L28+32
ARM GAS  C:\Users\Jack\AppData\Local\Temp\ccYWX8Tu.s 			page 14


 346 015c 0F22     		movs	r2, #15
 347 015e 1A81     		strh	r2, [r3, #8]
 281:BLEApplications.c ****         		CapSenseNotificationCCCDhandle.value.len = CCCD_DATA_LEN;
 348              		.loc 1 281 0
 349 0160 434B     		ldr	r3, .L28+32
 350 0162 424A     		ldr	r2, .L28+28
 351 0164 1A60     		str	r2, [r3]
 282:BLEApplications.c ****         		
 352              		.loc 1 282 0
 353 0166 424B     		ldr	r3, .L28+32
 354 0168 0222     		movs	r2, #2
 355 016a 9A80     		strh	r2, [r3, #4]
 285:BLEApplications.c ****             }
 356              		.loc 1 285 0
 357 016c 3B4A     		ldr	r2, .L28+12
 358 016e 4048     		ldr	r0, .L28+32
 359 0170 4023     		movs	r3, #64
 360 0172 0021     		movs	r1, #0
 361 0174 FFF7FEFF 		bl	CyBle_GattsWriteAttributeValue
 362              	.L18:
 288:BLEApplications.c ****             {
 363              		.loc 1 288 0
 364 0178 FB68     		ldr	r3, [r7, #12]
 365 017a 9B89     		ldrh	r3, [r3, #12]
 366 017c 142B     		cmp	r3, #20
 367 017e 2BD1     		bne	.L21
 291:BLEApplications.c ****                 {
 368              		.loc 1 291 0
 369 0180 FB68     		ldr	r3, [r7, #12]
 370 0182 5B68     		ldr	r3, [r3, #4]
 371 0184 1B78     		ldrb	r3, [r3]
 372 0186 012B     		cmp	r3, #1
 373 0188 03D1     		bne	.L22
 293:BLEApplications.c ****                 }
 374              		.loc 1 293 0
 375 018a 374B     		ldr	r3, .L28+24
 376 018c 0122     		movs	r2, #1
 377 018e 1A70     		strb	r2, [r3]
 378 0190 07E0     		b	.L23
 379              	.L22:
 295:BLEApplications.c ****                 {
 380              		.loc 1 295 0
 381 0192 FB68     		ldr	r3, [r7, #12]
 382 0194 5B68     		ldr	r3, [r3, #4]
 383 0196 1B78     		ldrb	r3, [r3]
 384 0198 002B     		cmp	r3, #0
 385 019a 02D1     		bne	.L23
 297:BLEApplications.c ****                 }
 386              		.loc 1 297 0
 387 019c 324B     		ldr	r3, .L28+24
 388 019e 0022     		movs	r2, #0
 389 01a0 1A70     		strb	r2, [r3]
 390              	.L23:
 301:BLEApplications.c ****         		RGBCCCDvalue[1] = 0x00;
 391              		.loc 1 301 0
 392 01a2 314B     		ldr	r3, .L28+24
 393 01a4 1A78     		ldrb	r2, [r3]
ARM GAS  C:\Users\Jack\AppData\Local\Temp\ccYWX8Tu.s 			page 15


 394 01a6 334B     		ldr	r3, .L28+36
 395 01a8 1A70     		strb	r2, [r3]
 302:BLEApplications.c ****         		
 396              		.loc 1 302 0
 397 01aa 324B     		ldr	r3, .L28+36
 398 01ac 0022     		movs	r2, #0
 399 01ae 5A70     		strb	r2, [r3, #1]
 305:BLEApplications.c ****         		RGBNotificationCCCDhandle.value.val = RGBCCCDvalue;
 400              		.loc 1 305 0
 401 01b0 314B     		ldr	r3, .L28+40
 402 01b2 1422     		movs	r2, #20
 403 01b4 1A81     		strh	r2, [r3, #8]
 306:BLEApplications.c ****         		RGBNotificationCCCDhandle.value.len = CCCD_DATA_LEN;
 404              		.loc 1 306 0
 405 01b6 304B     		ldr	r3, .L28+40
 406 01b8 2E4A     		ldr	r2, .L28+36
 407 01ba 1A60     		str	r2, [r3]
 307:BLEApplications.c ****         		
 408              		.loc 1 307 0
 409 01bc 2E4B     		ldr	r3, .L28+40
 410 01be 0222     		movs	r2, #2
 411 01c0 9A80     		strh	r2, [r3, #4]
 310:BLEApplications.c **** 				
 412              		.loc 1 310 0
 413 01c2 264A     		ldr	r2, .L28+12
 414 01c4 2C48     		ldr	r0, .L28+40
 415 01c6 4023     		movs	r3, #64
 416 01c8 0021     		movs	r1, #0
 417 01ca FFF7FEFF 		bl	CyBle_GattsWriteAttributeValue
 313:BLEApplications.c ****             }
 418              		.loc 1 313 0
 419 01ce 2B4B     		ldr	r3, .L28+44
 420 01d0 0421     		movs	r1, #4
 421 01d2 1800     		movs	r0, r3
 422 01d4 FFF7FEFF 		bl	SendDataOverRGBledNotification
 423              	.L21:
 317:BLEApplications.c ****             {
 424              		.loc 1 317 0
 425 01d8 FB68     		ldr	r3, [r7, #12]
 426 01da 9B89     		ldrh	r3, [r3, #12]
 427 01dc 132B     		cmp	r3, #19
 428 01de 15D1     		bne	.L24
 320:BLEApplications.c ****                 RGBledData[GREEN_INDEX] = wrReqParam->handleValPair.value.val[GREEN_INDEX];
 429              		.loc 1 320 0
 430 01e0 FB68     		ldr	r3, [r7, #12]
 431 01e2 5B68     		ldr	r3, [r3, #4]
 432 01e4 1A78     		ldrb	r2, [r3]
 433 01e6 254B     		ldr	r3, .L28+44
 434 01e8 1A70     		strb	r2, [r3]
 321:BLEApplications.c ****                 RGBledData[BLUE_INDEX] = wrReqParam->handleValPair.value.val[BLUE_INDEX];
 435              		.loc 1 321 0
 436 01ea FB68     		ldr	r3, [r7, #12]
 437 01ec 5B68     		ldr	r3, [r3, #4]
 438 01ee 5A78     		ldrb	r2, [r3, #1]
 439 01f0 224B     		ldr	r3, .L28+44
 440 01f2 5A70     		strb	r2, [r3, #1]
 322:BLEApplications.c ****                 RGBledData[INTENSITY_INDEX] = wrReqParam->handleValPair.value.val[INTENSITY_INDEX];
ARM GAS  C:\Users\Jack\AppData\Local\Temp\ccYWX8Tu.s 			page 16


 441              		.loc 1 322 0
 442 01f4 FB68     		ldr	r3, [r7, #12]
 443 01f6 5B68     		ldr	r3, [r3, #4]
 444 01f8 9A78     		ldrb	r2, [r3, #2]
 445 01fa 204B     		ldr	r3, .L28+44
 446 01fc 9A70     		strb	r2, [r3, #2]
 323:BLEApplications.c ****                 
 447              		.loc 1 323 0
 448 01fe FB68     		ldr	r3, [r7, #12]
 449 0200 5B68     		ldr	r3, [r3, #4]
 450 0202 DA78     		ldrb	r2, [r3, #3]
 451 0204 1D4B     		ldr	r3, .L28+44
 452 0206 DA70     		strb	r2, [r3, #3]
 326:BLEApplications.c ****             }
 453              		.loc 1 326 0
 454 0208 FFF7FEFF 		bl	UpdateRGBled
 455              	.L24:
 330:BLEApplications.c **** 			
 456              		.loc 1 330 0
 457 020c 134B     		ldr	r3, .L28+12
 458 020e 1A78     		ldrb	r2, [r3]
 459 0210 5B78     		ldrb	r3, [r3, #1]
 460 0212 1B02     		lsls	r3, r3, #8
 461 0214 1A43     		orrs	r2, r3
 462 0216 0023     		movs	r3, #0
 463 0218 1204     		lsls	r2, r2, #16
 464 021a 120C     		lsrs	r2, r2, #16
 465 021c 1B0C     		lsrs	r3, r3, #16
 466 021e 1B04     		lsls	r3, r3, #16
 467 0220 1343     		orrs	r3, r2
 468 0222 1800     		movs	r0, r3
 469 0224 FFF7FEFF 		bl	CyBle_GattsWriteRsp
 332:BLEApplications.c **** 			
 470              		.loc 1 332 0
 471 0228 0DE0     		b	.L16
 472              	.L15:
 336:BLEApplications.c ****             break;
 473              		.loc 1 336 0
 474 022a 154B     		ldr	r3, .L28+48
 475 022c 0022     		movs	r2, #0
 476 022e 1A70     		strb	r2, [r3]
 337:BLEApplications.c **** 			
 477              		.loc 1 337 0
 478 0230 09E0     		b	.L16
 479              	.L8:
 345:BLEApplications.c ****             break;
 480              		.loc 1 345 0
 481 0232 3B68     		ldr	r3, [r7]
 482 0234 1A78     		ldrb	r2, [r3]
 483 0236 134B     		ldr	r3, .L28+52
 484 0238 1A70     		strb	r2, [r3]
 346:BLEApplications.c **** 			
 485              		.loc 1 346 0
 486 023a 04E0     		b	.L16
 487              	.L25:
 175:BLEApplications.c **** 
 488              		.loc 1 175 0
ARM GAS  C:\Users\Jack\AppData\Local\Temp\ccYWX8Tu.s 			page 17


 489 023c C046     		nop
 490 023e 02E0     		b	.L16
 491              	.L26:
 156:BLEApplications.c ****         
 492              		.loc 1 156 0
 493 0240 C046     		nop
 494 0242 00E0     		b	.L16
 495              	.L27:
 171:BLEApplications.c **** 			
 496              		.loc 1 171 0
 497 0244 C046     		nop
 498              	.L16:
 351:BLEApplications.c ****     }   	/* switch(event) */
 352:BLEApplications.c **** }
 499              		.loc 1 352 0
 500 0246 C046     		nop
 501 0248 BD46     		mov	sp, r7
 502 024a 04B0     		add	sp, sp, #16
 503              		@ sp needed
 504 024c 80BD     		pop	{r7, pc}
 505              	.L29:
 506 024e C046     		.align	2
 507              	.L28:
 508 0250 00000000 		.word	restartAdvertisement
 509 0254 00000000 		.word	cyBle_state
 510 0258 00000000 		.word	shut_down_led
 511 025c 00000000 		.word	connectionHandle
 512 0260 00000000 		.word	deviceConnected
 513 0264 00000000 		.word	sendCapSenseSliderNotifications
 514 0268 00000000 		.word	rgbledNotifications
 515 026c 00000000 		.word	CapSenseCCCDvalue
 516 0270 00000000 		.word	CapSenseNotificationCCCDhandle
 517 0274 00000000 		.word	RGBCCCDvalue
 518 0278 00000000 		.word	RGBNotificationCCCDhandle
 519 027c 00000000 		.word	RGBledData
 520 0280 00000000 		.word	isConnectionUpdateRequested
 521 0284 00000000 		.word	busyStatus
 522              		.cfi_endproc
 523              	.LFE35:
 524              		.size	CustomEventHandler, .-CustomEventHandler
 525              		.section	.text.SendDataOverCapSenseNotification,"ax",%progbits
 526              		.align	2
 527              		.global	SendDataOverCapSenseNotification
 528              		.code	16
 529              		.thumb_func
 530              		.type	SendDataOverCapSenseNotification, %function
 531              	SendDataOverCapSenseNotification:
 532              	.LFB36:
 353:BLEApplications.c **** 
 354:BLEApplications.c **** /*******************************************************************************
 355:BLEApplications.c **** * Function Name: SendDataOverCapSenseNotification
 356:BLEApplications.c **** ********************************************************************************
 357:BLEApplications.c **** * Summary:
 358:BLEApplications.c **** *        Send CapSense Slider data as BLE Notifications. This function updates
 359:BLEApplications.c **** * the notification handle with data and triggers the BLE component to send 
 360:BLEApplications.c **** * notification
 361:BLEApplications.c **** *
ARM GAS  C:\Users\Jack\AppData\Local\Temp\ccYWX8Tu.s 			page 18


 362:BLEApplications.c **** * Parameters:
 363:BLEApplications.c **** *  uint8 CapSenseSliderData:	CapSense slider value	
 364:BLEApplications.c **** *
 365:BLEApplications.c **** * Return:
 366:BLEApplications.c **** *  void
 367:BLEApplications.c **** *
 368:BLEApplications.c **** *******************************************************************************/
 369:BLEApplications.c **** void SendDataOverCapSenseNotification(uint8 CapSenseSliderData)
 370:BLEApplications.c **** {
 533              		.loc 1 370 0
 534              		.cfi_startproc
 535              		@ args = 0, pretend = 0, frame = 24
 536              		@ frame_needed = 1, uses_anonymous_args = 0
 537 0000 80B5     		push	{r7, lr}
 538              		.cfi_def_cfa_offset 8
 539              		.cfi_offset 7, -8
 540              		.cfi_offset 14, -4
 541 0002 86B0     		sub	sp, sp, #24
 542              		.cfi_def_cfa_offset 32
 543 0004 00AF     		add	r7, sp, #0
 544              		.cfi_def_cfa_register 7
 545 0006 0200     		movs	r2, r0
 546 0008 FB1D     		adds	r3, r7, #7
 547 000a 1A70     		strb	r2, [r3]
 371:BLEApplications.c **** 	/* 'CapSensenotificationHandle' stores CapSense notification data parameters */
 372:BLEApplications.c **** 	CYBLE_GATTS_HANDLE_VALUE_NTF_T		CapSensenotificationHandle;	
 373:BLEApplications.c **** 	
 374:BLEApplications.c **** 	/* If stack is not busy, then send the notification */
 375:BLEApplications.c **** 	if(busyStatus == CYBLE_STACK_STATE_FREE)
 548              		.loc 1 375 0
 549 000c 114B     		ldr	r3, .L33
 550 000e 1B78     		ldrb	r3, [r3]
 551 0010 002B     		cmp	r3, #0
 552 0012 1BD1     		bne	.L32
 376:BLEApplications.c **** 	{
 377:BLEApplications.c **** 		/* Update notification handle with CapSense slider data*/
 378:BLEApplications.c **** 		CapSensenotificationHandle.attrHandle = CYBLE_CAPSENSE_CAPSENSE_SLIDER_CHAR_HANDLE;				
 553              		.loc 1 378 0
 554 0014 0C23     		movs	r3, #12
 555 0016 FB18     		adds	r3, r7, r3
 556 0018 0E22     		movs	r2, #14
 557 001a 1A81     		strh	r2, [r3, #8]
 379:BLEApplications.c **** 		CapSensenotificationHandle.value.val = &CapSenseSliderData;
 558              		.loc 1 379 0
 559 001c 0C23     		movs	r3, #12
 560 001e FB18     		adds	r3, r7, r3
 561 0020 FA1D     		adds	r2, r7, #7
 562 0022 1A60     		str	r2, [r3]
 380:BLEApplications.c **** 		CapSensenotificationHandle.value.len = CAPSENSE_SLIDER_NTF_DATA_LEN;
 563              		.loc 1 380 0
 564 0024 0C23     		movs	r3, #12
 565 0026 FB18     		adds	r3, r7, r3
 566 0028 0122     		movs	r2, #1
 567 002a 9A80     		strh	r2, [r3, #4]
 381:BLEApplications.c **** 		
 382:BLEApplications.c **** 		/* Send the updated handle as part of attribute for notifications */
 383:BLEApplications.c **** 		CyBle_GattsNotification(connectionHandle,&CapSensenotificationHandle);
ARM GAS  C:\Users\Jack\AppData\Local\Temp\ccYWX8Tu.s 			page 19


 568              		.loc 1 383 0
 569 002c 0C23     		movs	r3, #12
 570 002e F918     		adds	r1, r7, r3
 571 0030 094B     		ldr	r3, .L33+4
 572 0032 1A78     		ldrb	r2, [r3]
 573 0034 5B78     		ldrb	r3, [r3, #1]
 574 0036 1B02     		lsls	r3, r3, #8
 575 0038 1A43     		orrs	r2, r3
 576 003a 0023     		movs	r3, #0
 577 003c 1204     		lsls	r2, r2, #16
 578 003e 120C     		lsrs	r2, r2, #16
 579 0040 1B0C     		lsrs	r3, r3, #16
 580 0042 1B04     		lsls	r3, r3, #16
 581 0044 1343     		orrs	r3, r2
 582 0046 1800     		movs	r0, r3
 583 0048 FFF7FEFF 		bl	CyBle_GattsNotification
 584              	.L32:
 384:BLEApplications.c **** 	}
 385:BLEApplications.c **** }
 585              		.loc 1 385 0
 586 004c C046     		nop
 587 004e BD46     		mov	sp, r7
 588 0050 06B0     		add	sp, sp, #24
 589              		@ sp needed
 590 0052 80BD     		pop	{r7, pc}
 591              	.L34:
 592              		.align	2
 593              	.L33:
 594 0054 00000000 		.word	busyStatus
 595 0058 00000000 		.word	connectionHandle
 596              		.cfi_endproc
 597              	.LFE36:
 598              		.size	SendDataOverCapSenseNotification, .-SendDataOverCapSenseNotification
 599              		.section	.text.SendDataOverRGBledNotification,"ax",%progbits
 600              		.align	2
 601              		.global	SendDataOverRGBledNotification
 602              		.code	16
 603              		.thumb_func
 604              		.type	SendDataOverRGBledNotification, %function
 605              	SendDataOverRGBledNotification:
 606              	.LFB37:
 386:BLEApplications.c **** 
 387:BLEApplications.c **** /*******************************************************************************
 388:BLEApplications.c **** * Function Name: SendDataOverRGBledNotification
 389:BLEApplications.c **** ********************************************************************************
 390:BLEApplications.c **** * Summary:
 391:BLEApplications.c **** *        Send RGB LED data as BLE Notifications. This function updates
 392:BLEApplications.c **** * the notification handle with data and triggers the BLE component to send 
 393:BLEApplications.c **** * notification
 394:BLEApplications.c **** *
 395:BLEApplications.c **** * Parameters:
 396:BLEApplications.c **** *  uint8 *rgbLedData:	pointer to an array containing RGB color and Intensity values
 397:BLEApplications.c **** *  uint8 len: length of the array
 398:BLEApplications.c **** *
 399:BLEApplications.c **** * Return:
 400:BLEApplications.c **** *  void
 401:BLEApplications.c **** *
ARM GAS  C:\Users\Jack\AppData\Local\Temp\ccYWX8Tu.s 			page 20


 402:BLEApplications.c **** *******************************************************************************/
 403:BLEApplications.c **** void SendDataOverRGBledNotification(uint8 *rgbLedData, uint8 len)
 404:BLEApplications.c **** {
 607              		.loc 1 404 0
 608              		.cfi_startproc
 609              		@ args = 0, pretend = 0, frame = 24
 610              		@ frame_needed = 1, uses_anonymous_args = 0
 611 0000 80B5     		push	{r7, lr}
 612              		.cfi_def_cfa_offset 8
 613              		.cfi_offset 7, -8
 614              		.cfi_offset 14, -4
 615 0002 86B0     		sub	sp, sp, #24
 616              		.cfi_def_cfa_offset 32
 617 0004 00AF     		add	r7, sp, #0
 618              		.cfi_def_cfa_register 7
 619 0006 7860     		str	r0, [r7, #4]
 620 0008 0A00     		movs	r2, r1
 621 000a FB1C     		adds	r3, r7, #3
 622 000c 1A70     		strb	r2, [r3]
 405:BLEApplications.c **** 	/* 'rgbLednotificationHandle' stores RGB LED notification data parameters */
 406:BLEApplications.c **** 	CYBLE_GATTS_HANDLE_VALUE_NTF_T 	rgbLednotificationHandle;
 407:BLEApplications.c **** 	
 408:BLEApplications.c **** 	/* If stack is not busy, then send the notification */
 409:BLEApplications.c **** 	if(busyStatus == CYBLE_STACK_STATE_FREE)
 623              		.loc 1 409 0
 624 000e 134B     		ldr	r3, .L38
 625 0010 1B78     		ldrb	r3, [r3]
 626 0012 002B     		cmp	r3, #0
 627 0014 1DD1     		bne	.L37
 410:BLEApplications.c **** 	{
 411:BLEApplications.c **** 		/* Update notification handle with CapSense slider data*/
 412:BLEApplications.c **** 		rgbLednotificationHandle.attrHandle = CYBLE_RGB_LED_RGB_LED_CONTROL_CHAR_HANDLE;				
 628              		.loc 1 412 0
 629 0016 0C23     		movs	r3, #12
 630 0018 FB18     		adds	r3, r7, r3
 631 001a 1322     		movs	r2, #19
 632 001c 1A81     		strh	r2, [r3, #8]
 413:BLEApplications.c **** 		rgbLednotificationHandle.value.val = rgbLedData;
 633              		.loc 1 413 0
 634 001e 0C23     		movs	r3, #12
 635 0020 FB18     		adds	r3, r7, r3
 636 0022 7A68     		ldr	r2, [r7, #4]
 637 0024 1A60     		str	r2, [r3]
 414:BLEApplications.c **** 		rgbLednotificationHandle.value.len = len;
 638              		.loc 1 414 0
 639 0026 FB1C     		adds	r3, r7, #3
 640 0028 1B78     		ldrb	r3, [r3]
 641 002a 9AB2     		uxth	r2, r3
 642 002c 0C23     		movs	r3, #12
 643 002e FB18     		adds	r3, r7, r3
 644 0030 9A80     		strh	r2, [r3, #4]
 415:BLEApplications.c **** 		
 416:BLEApplications.c **** 		/* Send the updated handle as part of attribute for notifications */
 417:BLEApplications.c **** 		CyBle_GattsNotification(connectionHandle,&rgbLednotificationHandle);
 645              		.loc 1 417 0
 646 0032 0C23     		movs	r3, #12
 647 0034 F918     		adds	r1, r7, r3
ARM GAS  C:\Users\Jack\AppData\Local\Temp\ccYWX8Tu.s 			page 21


 648 0036 0A4B     		ldr	r3, .L38+4
 649 0038 1A78     		ldrb	r2, [r3]
 650 003a 5B78     		ldrb	r3, [r3, #1]
 651 003c 1B02     		lsls	r3, r3, #8
 652 003e 1A43     		orrs	r2, r3
 653 0040 0023     		movs	r3, #0
 654 0042 1204     		lsls	r2, r2, #16
 655 0044 120C     		lsrs	r2, r2, #16
 656 0046 1B0C     		lsrs	r3, r3, #16
 657 0048 1B04     		lsls	r3, r3, #16
 658 004a 1343     		orrs	r3, r2
 659 004c 1800     		movs	r0, r3
 660 004e FFF7FEFF 		bl	CyBle_GattsNotification
 661              	.L37:
 418:BLEApplications.c **** 	}
 419:BLEApplications.c **** }
 662              		.loc 1 419 0
 663 0052 C046     		nop
 664 0054 BD46     		mov	sp, r7
 665 0056 06B0     		add	sp, sp, #24
 666              		@ sp needed
 667 0058 80BD     		pop	{r7, pc}
 668              	.L39:
 669 005a C046     		.align	2
 670              	.L38:
 671 005c 00000000 		.word	busyStatus
 672 0060 00000000 		.word	connectionHandle
 673              		.cfi_endproc
 674              	.LFE37:
 675              		.size	SendDataOverRGBledNotification, .-SendDataOverRGBledNotification
 676              		.section	.text.UpdateConnectionParam,"ax",%progbits
 677              		.align	2
 678              		.global	UpdateConnectionParam
 679              		.code	16
 680              		.thumb_func
 681              		.type	UpdateConnectionParam, %function
 682              	UpdateConnectionParam:
 683              	.LFB38:
 420:BLEApplications.c **** 
 421:BLEApplications.c **** /*******************************************************************************
 422:BLEApplications.c **** * Function Name: UpdateConnectionParam
 423:BLEApplications.c **** ********************************************************************************
 424:BLEApplications.c **** * Summary:
 425:BLEApplications.c **** *        Send the Connection Update Request to Client device after connection 
 426:BLEApplications.c **** * and modify the connection interval for low power operation.
 427:BLEApplications.c **** *
 428:BLEApplications.c **** * Parameters:
 429:BLEApplications.c **** *	void
 430:BLEApplications.c **** *
 431:BLEApplications.c **** * Return:
 432:BLEApplications.c **** *  void
 433:BLEApplications.c **** *
 434:BLEApplications.c **** *******************************************************************************/
 435:BLEApplications.c **** void UpdateConnectionParam(void)
 436:BLEApplications.c **** {
 684              		.loc 1 436 0
 685              		.cfi_startproc
ARM GAS  C:\Users\Jack\AppData\Local\Temp\ccYWX8Tu.s 			page 22


 686              		@ args = 0, pretend = 0, frame = 0
 687              		@ frame_needed = 1, uses_anonymous_args = 0
 688 0000 80B5     		push	{r7, lr}
 689              		.cfi_def_cfa_offset 8
 690              		.cfi_offset 7, -8
 691              		.cfi_offset 14, -4
 692 0002 00AF     		add	r7, sp, #0
 693              		.cfi_def_cfa_register 7
 437:BLEApplications.c **** 	/* If device is connected and Update connection parameter not updated yet,
 438:BLEApplications.c **** 	* then send the Connection Parameter Update request to Client. */
 439:BLEApplications.c ****     if(deviceConnected && isConnectionUpdateRequested)
 694              		.loc 1 439 0
 695 0004 0A4B     		ldr	r3, .L43
 696 0006 1B78     		ldrb	r3, [r3]
 697 0008 002B     		cmp	r3, #0
 698 000a 0DD0     		beq	.L42
 699              		.loc 1 439 0 is_stmt 0 discriminator 1
 700 000c 094B     		ldr	r3, .L43+4
 701 000e 1B78     		ldrb	r3, [r3]
 702 0010 002B     		cmp	r3, #0
 703 0012 09D0     		beq	.L42
 440:BLEApplications.c **** 	{
 441:BLEApplications.c **** 		/* Reset the flag to indicate that connection Update request has been sent */
 442:BLEApplications.c **** 		isConnectionUpdateRequested = FALSE;
 704              		.loc 1 442 0 is_stmt 1
 705 0014 074B     		ldr	r3, .L43+4
 706 0016 0022     		movs	r2, #0
 707 0018 1A70     		strb	r2, [r3]
 443:BLEApplications.c **** 		
 444:BLEApplications.c **** 		/* Send Connection Update request with set Parameter */
 445:BLEApplications.c **** 		CyBle_L2capLeConnectionParamUpdateRequest(connectionHandle.bdHandle, &ConnectionParam);
 708              		.loc 1 445 0
 709 001a 074B     		ldr	r3, .L43+8
 710 001c 1B78     		ldrb	r3, [r3]
 711 001e 074A     		ldr	r2, .L43+12
 712 0020 1100     		movs	r1, r2
 713 0022 1800     		movs	r0, r3
 714 0024 FFF7FEFF 		bl	CyBle_L2capLeConnectionParamUpdateRequest
 715              	.L42:
 446:BLEApplications.c **** 	}
 447:BLEApplications.c **** }
 716              		.loc 1 447 0
 717 0028 C046     		nop
 718 002a BD46     		mov	sp, r7
 719              		@ sp needed
 720 002c 80BD     		pop	{r7, pc}
 721              	.L44:
 722 002e C046     		.align	2
 723              	.L43:
 724 0030 00000000 		.word	deviceConnected
 725 0034 00000000 		.word	isConnectionUpdateRequested
 726 0038 00000000 		.word	connectionHandle
 727 003c 04000000 		.word	ConnectionParam
 728              		.cfi_endproc
 729              	.LFE38:
 730              		.size	UpdateConnectionParam, .-UpdateConnectionParam
 731              		.global	__aeabi_idiv
ARM GAS  C:\Users\Jack\AppData\Local\Temp\ccYWX8Tu.s 			page 23


 732              		.section	.text.UpdateRGBled,"ax",%progbits
 733              		.align	2
 734              		.global	UpdateRGBled
 735              		.code	16
 736              		.thumb_func
 737              		.type	UpdateRGBled, %function
 738              	UpdateRGBled:
 739              	.LFB39:
 448:BLEApplications.c **** 
 449:BLEApplications.c **** /*******************************************************************************
 450:BLEApplications.c **** * Function Name: UpdateRGBled
 451:BLEApplications.c **** ********************************************************************************
 452:BLEApplications.c **** * Summary:
 453:BLEApplications.c **** *        Receive the new RGB data and modify PrISM parameters. Also, update the
 454:BLEApplications.c **** * read characteristic handle so that the next read from the BLE central device
 455:BLEApplications.c **** * gives present RGB color and intensity data.
 456:BLEApplications.c **** *
 457:BLEApplications.c **** * Parameters:
 458:BLEApplications.c **** *  void
 459:BLEApplications.c **** *
 460:BLEApplications.c **** * Return:
 461:BLEApplications.c **** *  void
 462:BLEApplications.c **** *
 463:BLEApplications.c **** *******************************************************************************/
 464:BLEApplications.c **** void UpdateRGBled(void)
 465:BLEApplications.c **** {
 740              		.loc 1 465 0
 741              		.cfi_startproc
 742              		@ args = 0, pretend = 0, frame = 8
 743              		@ frame_needed = 1, uses_anonymous_args = 0
 744 0000 80B5     		push	{r7, lr}
 745              		.cfi_def_cfa_offset 8
 746              		.cfi_offset 7, -8
 747              		.cfi_offset 14, -4
 748 0002 82B0     		sub	sp, sp, #8
 749              		.cfi_def_cfa_offset 16
 750 0004 00AF     		add	r7, sp, #0
 751              		.cfi_def_cfa_register 7
 466:BLEApplications.c **** 	/* Local variables to calculate the color components from RGB received data*/
 467:BLEApplications.c **** 	uint8 debug_red;
 468:BLEApplications.c **** 	uint8 debug_green;
 469:BLEApplications.c **** 	uint8 debug_blue;
 470:BLEApplications.c **** 	uint8 intensity_divide_value = RGBledData[INTENSITY_INDEX];
 752              		.loc 1 470 0
 753 0006 FB1D     		adds	r3, r7, #7
 754 0008 464A     		ldr	r2, .L49
 755 000a D278     		ldrb	r2, [r2, #3]
 756 000c 1A70     		strb	r2, [r3]
 471:BLEApplications.c **** 	
 472:BLEApplications.c **** 	/* Calculate the intensity of the Red, Green and Blue components from the
 473:BLEApplications.c **** 	* received 4-byte data */
 474:BLEApplications.c **** 	debug_red = (uint8)(((uint16)RGBledData[RED_INDEX]*intensity_divide_value)/255);
 757              		.loc 1 474 0
 758 000e 454B     		ldr	r3, .L49
 759 0010 1B78     		ldrb	r3, [r3]
 760 0012 1A00     		movs	r2, r3
 761 0014 FB1D     		adds	r3, r7, #7
ARM GAS  C:\Users\Jack\AppData\Local\Temp\ccYWX8Tu.s 			page 24


 762 0016 1B78     		ldrb	r3, [r3]
 763 0018 5343     		muls	r3, r2
 764 001a FF21     		movs	r1, #255
 765 001c 1800     		movs	r0, r3
 766 001e FFF7FEFF 		bl	__aeabi_idiv
 767 0022 0300     		movs	r3, r0
 768 0024 1A00     		movs	r2, r3
 769 0026 BB1D     		adds	r3, r7, #6
 770 0028 1A70     		strb	r2, [r3]
 475:BLEApplications.c **** 	debug_green = (uint8)(((uint16)RGBledData[GREEN_INDEX]*intensity_divide_value)/255);
 771              		.loc 1 475 0
 772 002a 3E4B     		ldr	r3, .L49
 773 002c 5B78     		ldrb	r3, [r3, #1]
 774 002e 1A00     		movs	r2, r3
 775 0030 FB1D     		adds	r3, r7, #7
 776 0032 1B78     		ldrb	r3, [r3]
 777 0034 5343     		muls	r3, r2
 778 0036 FF21     		movs	r1, #255
 779 0038 1800     		movs	r0, r3
 780 003a FFF7FEFF 		bl	__aeabi_idiv
 781 003e 0300     		movs	r3, r0
 782 0040 1A00     		movs	r2, r3
 783 0042 7B1D     		adds	r3, r7, #5
 784 0044 1A70     		strb	r2, [r3]
 476:BLEApplications.c **** 	debug_blue = (uint8)(((uint16)RGBledData[BLUE_INDEX]*intensity_divide_value)/255);
 785              		.loc 1 476 0
 786 0046 374B     		ldr	r3, .L49
 787 0048 9B78     		ldrb	r3, [r3, #2]
 788 004a 1A00     		movs	r2, r3
 789 004c FB1D     		adds	r3, r7, #7
 790 004e 1B78     		ldrb	r3, [r3]
 791 0050 5343     		muls	r3, r2
 792 0052 FF21     		movs	r1, #255
 793 0054 1800     		movs	r0, r3
 794 0056 FFF7FEFF 		bl	__aeabi_idiv
 795 005a 0300     		movs	r3, r0
 796 005c 1A00     		movs	r2, r3
 797 005e 3B1D     		adds	r3, r7, #4
 798 0060 1A70     		strb	r2, [r3]
 477:BLEApplications.c **** 	
 478:BLEApplications.c **** 	/*If the Intensity value sent by client is below a set threshold, assume no intensity
 479:BLEApplications.c **** 	* and switch off the RGB colors on LED. Also, set the appropriate flag to allow the system 
 480:BLEApplications.c **** 	* to go to Deep Sleep */
 481:BLEApplications.c **** 	if(RGBledData[INTENSITY_INDEX] < LED_NO_COLOR_THRESHOLD)
 799              		.loc 1 481 0
 800 0062 304B     		ldr	r3, .L49
 801 0064 DB78     		ldrb	r3, [r3, #3]
 802 0066 032B     		cmp	r3, #3
 803 0068 0CD8     		bhi	.L46
 482:BLEApplications.c **** 	{
 483:BLEApplications.c **** 		/* Set the flag to allow the system to go to Deep Sleep */
 484:BLEApplications.c **** 		shut_down_led = TRUE;
 804              		.loc 1 484 0
 805 006a 2F4B     		ldr	r3, .L49+4
 806 006c 0122     		movs	r2, #1
 807 006e 1A70     		strb	r2, [r3]
 485:BLEApplications.c **** 		
ARM GAS  C:\Users\Jack\AppData\Local\Temp\ccYWX8Tu.s 			page 25


 486:BLEApplications.c **** 		/* Set the RGB LED pin drive mode to HiZ to prevent leakage of current */
 487:BLEApplications.c **** 		RED_SetDriveMode(RED_DM_ALG_HIZ);
 808              		.loc 1 487 0
 809 0070 0020     		movs	r0, #0
 810 0072 FFF7FEFF 		bl	RED_SetDriveMode
 488:BLEApplications.c **** 		GREEN_SetDriveMode(GREEN_DM_ALG_HIZ);
 811              		.loc 1 488 0
 812 0076 0020     		movs	r0, #0
 813 0078 FFF7FEFF 		bl	GREEN_SetDriveMode
 489:BLEApplications.c **** 		BLUE_SetDriveMode(BLUE_DM_ALG_HIZ);
 814              		.loc 1 489 0
 815 007c 0020     		movs	r0, #0
 816 007e FFF7FEFF 		bl	BLUE_SetDriveMode
 817 0082 3CE0     		b	.L47
 818              	.L46:
 490:BLEApplications.c **** 	}
 491:BLEApplications.c **** 	else
 492:BLEApplications.c **** 	{
 493:BLEApplications.c **** 		/* If the individual color value of Red, Green and Blue component is less than
 494:BLEApplications.c **** 		*  set threshold, then assume no color and shut down the LEDs. Also,set the 
 495:BLEApplications.c **** 		* appropriate flag to allow system to go to Deep Sleep */
 496:BLEApplications.c **** 		if((debug_red < LED_NO_COLOR_THRESHOLD) && \
 819              		.loc 1 496 0
 820 0084 BB1D     		adds	r3, r7, #6
 821 0086 1B78     		ldrb	r3, [r3]
 822 0088 032B     		cmp	r3, #3
 823 008a 14D8     		bhi	.L48
 824              		.loc 1 496 0 is_stmt 0 discriminator 1
 825 008c 7B1D     		adds	r3, r7, #5
 826 008e 1B78     		ldrb	r3, [r3]
 827 0090 032B     		cmp	r3, #3
 828 0092 10D8     		bhi	.L48
 497:BLEApplications.c **** 			(debug_green < LED_NO_COLOR_THRESHOLD) && \
 829              		.loc 1 497 0 is_stmt 1
 830 0094 3B1D     		adds	r3, r7, #4
 831 0096 1B78     		ldrb	r3, [r3]
 832 0098 032B     		cmp	r3, #3
 833 009a 0CD8     		bhi	.L48
 498:BLEApplications.c **** 			(debug_blue < LED_NO_COLOR_THRESHOLD))
 499:BLEApplications.c **** 		{
 500:BLEApplications.c **** 			/* Set the flag to allow the system to go to Deep Sleep */
 501:BLEApplications.c **** 			shut_down_led = TRUE;
 834              		.loc 1 501 0
 835 009c 224B     		ldr	r3, .L49+4
 836 009e 0122     		movs	r2, #1
 837 00a0 1A70     		strb	r2, [r3]
 502:BLEApplications.c **** 			
 503:BLEApplications.c **** 			/* Set the RGB LED pin drive mode to HiZ to prevent leakage of current */
 504:BLEApplications.c **** 			RED_SetDriveMode(RED_DM_ALG_HIZ);
 838              		.loc 1 504 0
 839 00a2 0020     		movs	r0, #0
 840 00a4 FFF7FEFF 		bl	RED_SetDriveMode
 505:BLEApplications.c **** 			GREEN_SetDriveMode(GREEN_DM_ALG_HIZ);
 841              		.loc 1 505 0
 842 00a8 0020     		movs	r0, #0
 843 00aa FFF7FEFF 		bl	GREEN_SetDriveMode
 506:BLEApplications.c **** 			BLUE_SetDriveMode(BLUE_DM_ALG_HIZ);
ARM GAS  C:\Users\Jack\AppData\Local\Temp\ccYWX8Tu.s 			page 26


 844              		.loc 1 506 0
 845 00ae 0020     		movs	r0, #0
 846 00b0 FFF7FEFF 		bl	BLUE_SetDriveMode
 847 00b4 23E0     		b	.L47
 848              	.L48:
 507:BLEApplications.c **** 		}
 508:BLEApplications.c **** 		else
 509:BLEApplications.c **** 		{
 510:BLEApplications.c **** 			/* If the color and intensity values received are within the acceptable 
 511:BLEApplications.c **** 			* range, then PrISM has to be enabled and written with correct density 
 512:BLEApplications.c **** 			* value to present the right color. For this, reset the shut_down_led 
 513:BLEApplications.c **** 			* flag to allow CPU to go to only Sleep, and not Deep Sleep. This is 
 514:BLEApplications.c **** 			* because CPU cannot be in Deep Sleep while PrISM is active */
 515:BLEApplications.c **** 			shut_down_led = FALSE;
 849              		.loc 1 515 0
 850 00b6 1C4B     		ldr	r3, .L49+4
 851 00b8 0022     		movs	r2, #0
 852 00ba 1A70     		strb	r2, [r3]
 516:BLEApplications.c **** 			
 517:BLEApplications.c **** 			/* Set the time for RGB LED on Period. After this time (in seconds), the 
 518:BLEApplications.c **** 			* LED will be shutdown to prevent current usage */
 519:BLEApplications.c **** 			led_timer = LED_OFF_TIME_PERIOD;
 853              		.loc 1 519 0
 854 00bc 1B4B     		ldr	r3, .L49+8
 855 00be 0222     		movs	r2, #2
 856 00c0 1A70     		strb	r2, [r3]
 520:BLEApplications.c **** 			
 521:BLEApplications.c **** 			/* Set the drive mode for LED pins to Strong mode */
 522:BLEApplications.c **** 			RED_SetDriveMode(RED_DM_STRONG);
 857              		.loc 1 522 0
 858 00c2 0620     		movs	r0, #6
 859 00c4 FFF7FEFF 		bl	RED_SetDriveMode
 523:BLEApplications.c **** 			GREEN_SetDriveMode(GREEN_DM_STRONG);
 860              		.loc 1 523 0
 861 00c8 0620     		movs	r0, #6
 862 00ca FFF7FEFF 		bl	GREEN_SetDriveMode
 524:BLEApplications.c **** 			BLUE_SetDriveMode(BLUE_DM_STRONG);
 863              		.loc 1 524 0
 864 00ce 0620     		movs	r0, #6
 865 00d0 FFF7FEFF 		bl	BLUE_SetDriveMode
 525:BLEApplications.c **** 			
 526:BLEApplications.c **** 			/* Update the density value of the PrISM module for color control*/
 527:BLEApplications.c **** 			PrISM_1_WritePulse0(RGB_LED_MAX_VAL - debug_red);
 866              		.loc 1 527 0
 867 00d4 BB1D     		adds	r3, r7, #6
 868 00d6 1B78     		ldrb	r3, [r3]
 869 00d8 DB43     		mvns	r3, r3
 870 00da DBB2     		uxtb	r3, r3
 871 00dc 1800     		movs	r0, r3
 872 00de FFF7FEFF 		bl	PrISM_1_WritePulse0
 528:BLEApplications.c **** 		    PrISM_1_WritePulse1(RGB_LED_MAX_VAL - debug_green);
 873              		.loc 1 528 0
 874 00e2 7B1D     		adds	r3, r7, #5
 875 00e4 1B78     		ldrb	r3, [r3]
 876 00e6 DB43     		mvns	r3, r3
 877 00e8 DBB2     		uxtb	r3, r3
 878 00ea 1800     		movs	r0, r3
ARM GAS  C:\Users\Jack\AppData\Local\Temp\ccYWX8Tu.s 			page 27


 879 00ec FFF7FEFF 		bl	PrISM_1_WritePulse1
 529:BLEApplications.c **** 		    PrISM_2_WritePulse0(RGB_LED_MAX_VAL - debug_blue);
 880              		.loc 1 529 0
 881 00f0 3B1D     		adds	r3, r7, #4
 882 00f2 1B78     		ldrb	r3, [r3]
 883 00f4 DB43     		mvns	r3, r3
 884 00f6 DBB2     		uxtb	r3, r3
 885 00f8 1800     		movs	r0, r3
 886 00fa FFF7FEFF 		bl	PrISM_2_WritePulse0
 887              	.L47:
 530:BLEApplications.c **** 		}
 531:BLEApplications.c **** 	}
 532:BLEApplications.c **** 	
 533:BLEApplications.c **** 	/* Update RGB control handle with new values */
 534:BLEApplications.c **** 	rgbHandle.attrHandle = CYBLE_RGB_LED_RGB_LED_CONTROL_CHAR_HANDLE;
 888              		.loc 1 534 0
 889 00fe 0C4B     		ldr	r3, .L49+12
 890 0100 1322     		movs	r2, #19
 891 0102 1A81     		strh	r2, [r3, #8]
 535:BLEApplications.c **** 	rgbHandle.value.val = RGBledData;
 892              		.loc 1 535 0
 893 0104 0A4B     		ldr	r3, .L49+12
 894 0106 074A     		ldr	r2, .L49
 895 0108 1A60     		str	r2, [r3]
 536:BLEApplications.c **** 	rgbHandle.value.len = RGB_CHAR_DATA_LEN;
 896              		.loc 1 536 0
 897 010a 094B     		ldr	r3, .L49+12
 898 010c 0422     		movs	r2, #4
 899 010e 9A80     		strh	r2, [r3, #4]
 537:BLEApplications.c **** 	
 538:BLEApplications.c **** 	/* Send updated RGB control handle as attribute for read by central device, so that
 539:BLEApplications.c **** 	* Client reads the new RGB color data */
 540:BLEApplications.c **** 	CyBle_GattsWriteAttributeValue(&rgbHandle,FALSE,&connectionHandle,FALSE);
 900              		.loc 1 540 0
 901 0110 084A     		ldr	r2, .L49+16
 902 0112 0748     		ldr	r0, .L49+12
 903 0114 0023     		movs	r3, #0
 904 0116 0021     		movs	r1, #0
 905 0118 FFF7FEFF 		bl	CyBle_GattsWriteAttributeValue
 541:BLEApplications.c **** }
 906              		.loc 1 541 0
 907 011c C046     		nop
 908 011e BD46     		mov	sp, r7
 909 0120 02B0     		add	sp, sp, #8
 910              		@ sp needed
 911 0122 80BD     		pop	{r7, pc}
 912              	.L50:
 913              		.align	2
 914              	.L49:
 915 0124 00000000 		.word	RGBledData
 916 0128 00000000 		.word	shut_down_led
 917 012c 00000000 		.word	led_timer
 918 0130 00000000 		.word	rgbHandle
 919 0134 00000000 		.word	connectionHandle
 920              		.cfi_endproc
 921              	.LFE39:
 922              		.size	UpdateRGBled, .-UpdateRGBled
ARM GAS  C:\Users\Jack\AppData\Local\Temp\ccYWX8Tu.s 			page 28


 923              		.section	.text.HandleStatusLED,"ax",%progbits
 924              		.align	2
 925              		.global	HandleStatusLED
 926              		.code	16
 927              		.thumb_func
 928              		.type	HandleStatusLED, %function
 929              	HandleStatusLED:
 930              	.LFB40:
 542:BLEApplications.c **** 
 543:BLEApplications.c **** 
 544:BLEApplications.c **** /*******************************************************************************
 545:BLEApplications.c **** * Function Name: HandleStatusLED
 546:BLEApplications.c **** ********************************************************************************
 547:BLEApplications.c **** * Summary:
 548:BLEApplications.c **** *        Handle LED status, such as blinking, ON or OFF depending on BLE state.
 549:BLEApplications.c **** *
 550:BLEApplications.c **** * Parameters:
 551:BLEApplications.c **** *  void
 552:BLEApplications.c **** *
 553:BLEApplications.c **** * Return:
 554:BLEApplications.c **** *  void
 555:BLEApplications.c **** *
 556:BLEApplications.c **** *******************************************************************************/
 557:BLEApplications.c **** void HandleStatusLED(void)
 558:BLEApplications.c **** {
 931              		.loc 1 558 0
 932              		.cfi_startproc
 933              		@ args = 0, pretend = 0, frame = 8
 934              		@ frame_needed = 1, uses_anonymous_args = 0
 935 0000 80B5     		push	{r7, lr}
 936              		.cfi_def_cfa_offset 8
 937              		.cfi_offset 7, -8
 938              		.cfi_offset 14, -4
 939 0002 82B0     		sub	sp, sp, #8
 940              		.cfi_def_cfa_offset 16
 941 0004 00AF     		add	r7, sp, #0
 942              		.cfi_def_cfa_register 7
 559:BLEApplications.c **** 	/* Local static counter to handle the periodic toggling of LED or keeping LED ON
 560:BLEApplications.c **** 	* for some time. */
 561:BLEApplications.c **** 	static uint32 led_counter = TRUE;
 562:BLEApplications.c **** 	
 563:BLEApplications.c **** 	/* Local static variable that stores the last BLE state in which firmware was */
 564:BLEApplications.c **** 	static uint8 state = 0xFF;
 565:BLEApplications.c **** 	
 566:BLEApplications.c **** 	/* Flag to indicate that the state of BLE has changed from the last known value */
 567:BLEApplications.c **** 	uint8 state_changed = FALSE;
 943              		.loc 1 567 0
 944 0006 FB1D     		adds	r3, r7, #7
 945 0008 0022     		movs	r2, #0
 946 000a 1A70     		strb	r2, [r3]
 568:BLEApplications.c **** 	
 569:BLEApplications.c **** 	if(state != CyBle_GetState())
 947              		.loc 1 569 0
 948 000c 374B     		ldr	r3, .L63
 949 000e 1A78     		ldrb	r2, [r3]
 950 0010 374B     		ldr	r3, .L63+4
 951 0012 1B78     		ldrb	r3, [r3]
ARM GAS  C:\Users\Jack\AppData\Local\Temp\ccYWX8Tu.s 			page 29


 952 0014 9A42     		cmp	r2, r3
 953 0016 09D0     		beq	.L52
 570:BLEApplications.c **** 	{
 571:BLEApplications.c **** 		/* If the present BLE state is different from the new BLE state, set the 
 572:BLEApplications.c **** 		* state_changed flag and reset the local counter */
 573:BLEApplications.c **** 		state_changed = TRUE;
 954              		.loc 1 573 0
 955 0018 FB1D     		adds	r3, r7, #7
 956 001a 0122     		movs	r2, #1
 957 001c 1A70     		strb	r2, [r3]
 574:BLEApplications.c **** 				
 575:BLEApplications.c **** 		if(CyBle_GetState() == CYBLE_STATE_ADVERTISING)
 958              		.loc 1 575 0
 959 001e 344B     		ldr	r3, .L63+4
 960 0020 1B78     		ldrb	r3, [r3]
 961 0022 032B     		cmp	r3, #3
 962 0024 02D1     		bne	.L52
 576:BLEApplications.c **** 		{
 577:BLEApplications.c **** 			led_counter = TRUE;
 963              		.loc 1 577 0
 964 0026 334B     		ldr	r3, .L63+8
 965 0028 0122     		movs	r2, #1
 966 002a 1A60     		str	r2, [r3]
 967              	.L52:
 578:BLEApplications.c **** 		}
 579:BLEApplications.c **** 	}
 580:BLEApplications.c **** 	
 581:BLEApplications.c **** 	/* Store the new BLE state into the present state variable */
 582:BLEApplications.c **** 	state = CyBle_GetState();
 968              		.loc 1 582 0
 969 002c 304B     		ldr	r3, .L63+4
 970 002e 1A78     		ldrb	r2, [r3]
 971 0030 2E4B     		ldr	r3, .L63
 972 0032 1A70     		strb	r2, [r3]
 583:BLEApplications.c **** 		
 584:BLEApplications.c **** 	switch(state)
 973              		.loc 1 584 0
 974 0034 2D4B     		ldr	r3, .L63
 975 0036 1B78     		ldrb	r3, [r3]
 976 0038 032B     		cmp	r3, #3
 977 003a 1AD0     		beq	.L54
 978 003c 042B     		cmp	r3, #4
 979 003e 3AD0     		beq	.L55
 980 0040 022B     		cmp	r3, #2
 981 0042 00D0     		beq	.L56
 585:BLEApplications.c **** 	{
 586:BLEApplications.c **** 		case CYBLE_STATE_CONNECTED:
 587:BLEApplications.c **** 			/* If the present BLE state is connected, keep the LED ON for
 588:BLEApplications.c **** 			* pre-determined time and then switch it OFF in WDT ISR */
 589:BLEApplications.c **** 			if(state_changed)
 590:BLEApplications.c **** 			{
 591:BLEApplications.c **** 				/* Reset the flag for state change */
 592:BLEApplications.c **** 				state_changed = FALSE;
 593:BLEApplications.c **** 				
 594:BLEApplications.c **** 				/* Set the drive mode of LED to Strong to allow driving the LED */
 595:BLEApplications.c **** 				RED_SetDriveMode(RED_DM_STRONG);
 596:BLEApplications.c **** 
ARM GAS  C:\Users\Jack\AppData\Local\Temp\ccYWX8Tu.s 			page 30


 597:BLEApplications.c **** 				/* Put the Status LED to ON state */
 598:BLEApplications.c **** 				PrISM_1_WritePulse0(RGB_LED_ON);
 599:BLEApplications.c **** 				
 600:BLEApplications.c **** 				/* Set flag and counter for Connection indication on LED */
 601:BLEApplications.c **** 				switch_off_status_led = TRUE;
 602:BLEApplications.c **** 				timer_tick = LED_CONN_ON_TIME;
 603:BLEApplications.c **** 				
 604:BLEApplications.c **** 				/* Initialize the Watchdog for 1 second timing events. The watchdog 
 605:BLEApplications.c **** 				* is initialized after connection and disabled after disconnection.
 606:BLEApplications.c **** 				* This is done to ensure that Watchdog provides periodic wakeup only
 607:BLEApplications.c **** 				* when the system is connected and RGB LED control is required. During 
 608:BLEApplications.c **** 				* other times, it should not wakeup the system, causing increase in power
 609:BLEApplications.c **** 				* consumption */
 610:BLEApplications.c **** 				InitializeWatchdog();
 611:BLEApplications.c **** 			}
 612:BLEApplications.c **** 		break;
 613:BLEApplications.c **** 		
 614:BLEApplications.c **** 		case CYBLE_STATE_ADVERTISING:
 615:BLEApplications.c **** 			/* If the present BLE state is advertising, toggle the LED
 616:BLEApplications.c **** 			* at pre-determined period to indicate advertising. */
 617:BLEApplications.c **** 			if((--led_counter) == FALSE)
 618:BLEApplications.c **** 			{
 619:BLEApplications.c **** 				/* Toggle Status LED for indicating Advertisement */
 620:BLEApplications.c **** 				if(PrISM_1_ReadPulse0() == RGB_LED_OFF)
 621:BLEApplications.c **** 				{
 622:BLEApplications.c **** 					PrISM_1_WritePulse0(RGB_LED_ON);
 623:BLEApplications.c **** 					RED_SetDriveMode(RED_DM_STRONG);
 624:BLEApplications.c **** 					
 625:BLEApplications.c **** 					led_counter	= LED_ADV_BLINK_PERIOD_ON;
 626:BLEApplications.c **** 				}
 627:BLEApplications.c **** 				else
 628:BLEApplications.c **** 				{
 629:BLEApplications.c **** 					PrISM_1_WritePulse0(RGB_LED_OFF);
 630:BLEApplications.c **** 					RED_SetDriveMode(RED_DM_ALG_HIZ);
 631:BLEApplications.c **** 					
 632:BLEApplications.c **** 					led_counter	= LED_ADV_BLINK_PERIOD_OFF;
 633:BLEApplications.c **** 				}
 634:BLEApplications.c **** 			}
 635:BLEApplications.c **** 		break;
 636:BLEApplications.c **** 		
 637:BLEApplications.c **** 		case CYBLE_STATE_DISCONNECTED:
 638:BLEApplications.c **** 			/* If the present BLE state is disconnected, switch off LED
 639:BLEApplications.c **** 			* and set the drive mode of LED to Hi-Z (Analog)*/
 640:BLEApplications.c **** 			PrISM_1_WritePulse0(RGB_LED_OFF);
 641:BLEApplications.c **** 			RED_SetDriveMode(RED_DM_ALG_HIZ);
 642:BLEApplications.c **** 			GREEN_SetDriveMode(GREEN_DM_ALG_HIZ);
 643:BLEApplications.c **** 			BLUE_SetDriveMode(BLUE_DM_ALG_HIZ);
 644:BLEApplications.c **** 			
 645:BLEApplications.c **** 			/* Disable Watchdog to prevent Watchdog waking system after
 646:BLEApplications.c **** 			*  disconnection */
 647:BLEApplications.c **** 			CyIntDisable(WATCHDOG_INT_VEC_NUM);
 648:BLEApplications.c **** 		break;
 649:BLEApplications.c **** 		
 650:BLEApplications.c **** 		default:
 651:BLEApplications.c **** 
 652:BLEApplications.c **** 		break;
 982              		.loc 1 652 0
ARM GAS  C:\Users\Jack\AppData\Local\Temp\ccYWX8Tu.s 			page 31


 983 0044 4AE0     		b	.L58
 984              	.L56:
 589:BLEApplications.c **** 			{
 985              		.loc 1 589 0
 986 0046 FB1D     		adds	r3, r7, #7
 987 0048 1B78     		ldrb	r3, [r3]
 988 004a 002B     		cmp	r3, #0
 989 004c 43D0     		beq	.L61
 592:BLEApplications.c **** 				
 990              		.loc 1 592 0
 991 004e FB1D     		adds	r3, r7, #7
 992 0050 0022     		movs	r2, #0
 993 0052 1A70     		strb	r2, [r3]
 595:BLEApplications.c **** 
 994              		.loc 1 595 0
 995 0054 0620     		movs	r0, #6
 996 0056 FFF7FEFF 		bl	RED_SetDriveMode
 598:BLEApplications.c **** 				
 997              		.loc 1 598 0
 998 005a 0020     		movs	r0, #0
 999 005c FFF7FEFF 		bl	PrISM_1_WritePulse0
 601:BLEApplications.c **** 				timer_tick = LED_CONN_ON_TIME;
 1000              		.loc 1 601 0
 1001 0060 254B     		ldr	r3, .L63+12
 1002 0062 0122     		movs	r2, #1
 1003 0064 1A70     		strb	r2, [r3]
 602:BLEApplications.c **** 				
 1004              		.loc 1 602 0
 1005 0066 254B     		ldr	r3, .L63+16
 1006 0068 0222     		movs	r2, #2
 1007 006a 1A70     		strb	r2, [r3]
 610:BLEApplications.c **** 			}
 1008              		.loc 1 610 0
 1009 006c FFF7FEFF 		bl	InitializeWatchdog
 612:BLEApplications.c **** 		
 1010              		.loc 1 612 0
 1011 0070 31E0     		b	.L61
 1012              	.L54:
 617:BLEApplications.c **** 			{
 1013              		.loc 1 617 0
 1014 0072 204B     		ldr	r3, .L63+8
 1015 0074 1B68     		ldr	r3, [r3]
 1016 0076 5A1E     		subs	r2, r3, #1
 1017 0078 1E4B     		ldr	r3, .L63+8
 1018 007a 1A60     		str	r2, [r3]
 1019 007c 1D4B     		ldr	r3, .L63+8
 1020 007e 1B68     		ldr	r3, [r3]
 1021 0080 002B     		cmp	r3, #0
 1022 0082 2AD1     		bne	.L62
 620:BLEApplications.c **** 				{
 1023              		.loc 1 620 0
 1024 0084 FFF7FEFF 		bl	PrISM_1_ReadPulse0
 1025 0088 0300     		movs	r3, r0
 1026 008a FF2B     		cmp	r3, #255
 1027 008c 09D1     		bne	.L60
 622:BLEApplications.c **** 					RED_SetDriveMode(RED_DM_STRONG);
 1028              		.loc 1 622 0
ARM GAS  C:\Users\Jack\AppData\Local\Temp\ccYWX8Tu.s 			page 32


 1029 008e 0020     		movs	r0, #0
 1030 0090 FFF7FEFF 		bl	PrISM_1_WritePulse0
 623:BLEApplications.c **** 					
 1031              		.loc 1 623 0
 1032 0094 0620     		movs	r0, #6
 1033 0096 FFF7FEFF 		bl	RED_SetDriveMode
 625:BLEApplications.c **** 				}
 1034              		.loc 1 625 0
 1035 009a 164B     		ldr	r3, .L63+8
 1036 009c 0422     		movs	r2, #4
 1037 009e 1A60     		str	r2, [r3]
 635:BLEApplications.c **** 		
 1038              		.loc 1 635 0
 1039 00a0 1BE0     		b	.L62
 1040              	.L60:
 629:BLEApplications.c **** 					RED_SetDriveMode(RED_DM_ALG_HIZ);
 1041              		.loc 1 629 0
 1042 00a2 FF20     		movs	r0, #255
 1043 00a4 FFF7FEFF 		bl	PrISM_1_WritePulse0
 630:BLEApplications.c **** 					
 1044              		.loc 1 630 0
 1045 00a8 0020     		movs	r0, #0
 1046 00aa FFF7FEFF 		bl	RED_SetDriveMode
 632:BLEApplications.c **** 				}
 1047              		.loc 1 632 0
 1048 00ae 114B     		ldr	r3, .L63+8
 1049 00b0 1422     		movs	r2, #20
 1050 00b2 1A60     		str	r2, [r3]
 635:BLEApplications.c **** 		
 1051              		.loc 1 635 0
 1052 00b4 11E0     		b	.L62
 1053              	.L55:
 640:BLEApplications.c **** 			RED_SetDriveMode(RED_DM_ALG_HIZ);
 1054              		.loc 1 640 0
 1055 00b6 FF20     		movs	r0, #255
 1056 00b8 FFF7FEFF 		bl	PrISM_1_WritePulse0
 641:BLEApplications.c **** 			GREEN_SetDriveMode(GREEN_DM_ALG_HIZ);
 1057              		.loc 1 641 0
 1058 00bc 0020     		movs	r0, #0
 1059 00be FFF7FEFF 		bl	RED_SetDriveMode
 642:BLEApplications.c **** 			BLUE_SetDriveMode(BLUE_DM_ALG_HIZ);
 1060              		.loc 1 642 0
 1061 00c2 0020     		movs	r0, #0
 1062 00c4 FFF7FEFF 		bl	GREEN_SetDriveMode
 643:BLEApplications.c **** 			
 1063              		.loc 1 643 0
 1064 00c8 0020     		movs	r0, #0
 1065 00ca FFF7FEFF 		bl	BLUE_SetDriveMode
 647:BLEApplications.c **** 		break;
 1066              		.loc 1 647 0
 1067 00ce 0820     		movs	r0, #8
 1068 00d0 FFF7FEFF 		bl	CyIntDisable
 648:BLEApplications.c **** 		
 1069              		.loc 1 648 0
 1070 00d4 02E0     		b	.L58
 1071              	.L61:
 612:BLEApplications.c **** 		
ARM GAS  C:\Users\Jack\AppData\Local\Temp\ccYWX8Tu.s 			page 33


 1072              		.loc 1 612 0
 1073 00d6 C046     		nop
 1074 00d8 00E0     		b	.L58
 1075              	.L62:
 635:BLEApplications.c **** 		
 1076              		.loc 1 635 0
 1077 00da C046     		nop
 1078              	.L58:
 653:BLEApplications.c **** 	}
 654:BLEApplications.c **** 	
 655:BLEApplications.c **** 	/* Reset the state changed flag. */
 656:BLEApplications.c **** 	state_changed = FALSE;
 1079              		.loc 1 656 0
 1080 00dc FB1D     		adds	r3, r7, #7
 1081 00de 0022     		movs	r2, #0
 1082 00e0 1A70     		strb	r2, [r3]
 657:BLEApplications.c **** }
 1083              		.loc 1 657 0
 1084 00e2 C046     		nop
 1085 00e4 BD46     		mov	sp, r7
 1086 00e6 02B0     		add	sp, sp, #8
 1087              		@ sp needed
 1088 00e8 80BD     		pop	{r7, pc}
 1089              	.L64:
 1090 00ea C046     		.align	2
 1091              	.L63:
 1092 00ec 0D000000 		.word	state.7651
 1093 00f0 00000000 		.word	cyBle_state
 1094 00f4 10000000 		.word	led_counter.7650
 1095 00f8 00000000 		.word	switch_off_status_led
 1096 00fc 00000000 		.word	timer_tick
 1097              		.cfi_endproc
 1098              	.LFE40:
 1099              		.size	HandleStatusLED, .-HandleStatusLED
 1100              		.section	.text.WDT_INT_Handler,"ax",%progbits
 1101              		.align	2
 1102              		.global	WDT_INT_Handler
 1103              		.code	16
 1104              		.thumb_func
 1105              		.type	WDT_INT_Handler, %function
 1106              	WDT_INT_Handler:
 1107              	.LFB41:
 658:BLEApplications.c **** 
 659:BLEApplications.c **** /*******************************************************************************
 660:BLEApplications.c **** * Function Name: WDT_INT_Handler
 661:BLEApplications.c **** ********************************************************************************
 662:BLEApplications.c **** * Summary:
 663:BLEApplications.c **** *        Watchdog interrupt routine for controlling LED status in connected state
 664:BLEApplications.c **** *
 665:BLEApplications.c **** * Parameters:
 666:BLEApplications.c **** *  void
 667:BLEApplications.c **** *
 668:BLEApplications.c **** * Return:
 669:BLEApplications.c **** *  void
 670:BLEApplications.c **** *
 671:BLEApplications.c **** *******************************************************************************/
 672:BLEApplications.c **** void WDT_INT_Handler(void)
ARM GAS  C:\Users\Jack\AppData\Local\Temp\ccYWX8Tu.s 			page 34


 673:BLEApplications.c **** {
 1108              		.loc 1 673 0
 1109              		.cfi_startproc
 1110              		@ args = 0, pretend = 0, frame = 0
 1111              		@ frame_needed = 1, uses_anonymous_args = 0
 1112 0000 80B5     		push	{r7, lr}
 1113              		.cfi_def_cfa_offset 8
 1114              		.cfi_offset 7, -8
 1115              		.cfi_offset 14, -4
 1116 0002 00AF     		add	r7, sp, #0
 1117              		.cfi_def_cfa_register 7
 674:BLEApplications.c **** 	/* If the Interrupt source is Counter 0 match, then process */
 675:BLEApplications.c **** 	if(CySysWdtGetInterruptSource() & CY_SYS_WDT_COUNTER0_INT)
 1118              		.loc 1 675 0
 1119 0004 FFF7FEFF 		bl	CySysWdtGetInterruptSource
 1120 0008 0200     		movs	r2, r0
 1121 000a 0423     		movs	r3, #4
 1122 000c 1340     		ands	r3, r2
 1123 000e 4BD0     		beq	.L72
 676:BLEApplications.c **** 	{
 677:BLEApplications.c **** 		/* Clear Watchdog Interrupt from Counter 0 */
 678:BLEApplications.c **** 		CySysWdtClearInterrupt(CY_SYS_WDT_COUNTER0_INT);
 1124              		.loc 1 678 0
 1125 0010 0420     		movs	r0, #4
 1126 0012 FFF7FEFF 		bl	CySysWdtClearInterrupt
 679:BLEApplications.c **** 		
 680:BLEApplications.c **** 		/* If switch_off_status_led is TRUE, then the Connection status LED 
 681:BLEApplications.c **** 		* is ON and it is required to shut it down after 3 seconds */
 682:BLEApplications.c **** 		if(switch_off_status_led)
 1127              		.loc 1 682 0
 1128 0016 264B     		ldr	r3, .L73
 1129 0018 1B78     		ldrb	r3, [r3]
 1130 001a 002B     		cmp	r3, #0
 1131 001c 14D0     		beq	.L67
 683:BLEApplications.c **** 		{
 684:BLEApplications.c **** 			/* If timer ticks for Connection status LED ON period has expired, then switch
 685:BLEApplications.c **** 			* off LED */
 686:BLEApplications.c **** 			if(timer_tick == FALSE)
 1132              		.loc 1 686 0
 1133 001e 254B     		ldr	r3, .L73+4
 1134 0020 1B78     		ldrb	r3, [r3]
 1135 0022 002B     		cmp	r3, #0
 1136 0024 09D1     		bne	.L68
 687:BLEApplications.c **** 			{
 688:BLEApplications.c **** 				/* Switch off Status LED */
 689:BLEApplications.c **** 				PrISM_1_WritePulse0(RGB_LED_OFF);
 1137              		.loc 1 689 0
 1138 0026 FF20     		movs	r0, #255
 1139 0028 FFF7FEFF 		bl	PrISM_1_WritePulse0
 690:BLEApplications.c **** 				
 691:BLEApplications.c **** 				/* Set the drive mode of LED to Analog HiZ to prevent leakage current */
 692:BLEApplications.c **** 				RED_SetDriveMode(RED_DM_ALG_HIZ);
 1140              		.loc 1 692 0
 1141 002c 0020     		movs	r0, #0
 1142 002e FFF7FEFF 		bl	RED_SetDriveMode
 693:BLEApplications.c **** 				
 694:BLEApplications.c **** 				/* Reset the Flag */
ARM GAS  C:\Users\Jack\AppData\Local\Temp\ccYWX8Tu.s 			page 35


 695:BLEApplications.c **** 				switch_off_status_led = FALSE;
 1143              		.loc 1 695 0
 1144 0032 1F4B     		ldr	r3, .L73
 1145 0034 0022     		movs	r2, #0
 1146 0036 1A70     		strb	r2, [r3]
 1147 0038 1DE0     		b	.L70
 1148              	.L68:
 696:BLEApplications.c **** 				
 697:BLEApplications.c **** 			}
 698:BLEApplications.c **** 			else
 699:BLEApplications.c **** 			{
 700:BLEApplications.c **** 				/* Decrement timer_tick as counting method */
 701:BLEApplications.c **** 				timer_tick--;
 1149              		.loc 1 701 0
 1150 003a 1E4B     		ldr	r3, .L73+4
 1151 003c 1B78     		ldrb	r3, [r3]
 1152 003e 013B     		subs	r3, r3, #1
 1153 0040 DAB2     		uxtb	r2, r3
 1154 0042 1C4B     		ldr	r3, .L73+4
 1155 0044 1A70     		strb	r2, [r3]
 1156 0046 16E0     		b	.L70
 1157              	.L67:
 702:BLEApplications.c **** 			}
 703:BLEApplications.c **** 		}
 704:BLEApplications.c **** 		/* If the LED activity for Connection LED ON is completed, then firmware is 
 705:BLEApplications.c **** 		* allowed to do timing for RGB LED Control operation after connection. This 
 706:BLEApplications.c **** 		* operation keeps the RGB LED ON for determined time (default 3 seconds) from
 707:BLEApplications.c **** 		* the last time RGB LED data was sent. This ensures that continuous usage of 
 708:BLEApplications.c **** 		* the kit in RGB mode does not consume too much power */
 709:BLEApplications.c **** 		else
 710:BLEApplications.c **** 		{
 711:BLEApplications.c **** 			/* After displaying color for predetermined time, switch off 
 712:BLEApplications.c **** 			* the LEDs to save power */
 713:BLEApplications.c **** 			if(FALSE == led_timer)
 1158              		.loc 1 713 0
 1159 0048 1B4B     		ldr	r3, .L73+8
 1160 004a 1B78     		ldrb	r3, [r3]
 1161 004c 002B     		cmp	r3, #0
 1162 004e 0CD1     		bne	.L71
 714:BLEApplications.c **** 			{
 715:BLEApplications.c **** 				/* Set the flag to indicate to the Low power mode function that system 
 716:BLEApplications.c **** 				* can be put to Deep Sleep as no LED operation is required */
 717:BLEApplications.c **** 				shut_down_led= TRUE;
 1163              		.loc 1 717 0
 1164 0050 1A4B     		ldr	r3, .L73+12
 1165 0052 0122     		movs	r2, #1
 1166 0054 1A70     		strb	r2, [r3]
 718:BLEApplications.c **** 				
 719:BLEApplications.c **** 				/* Shut down LEDs*/
 720:BLEApplications.c **** 				RED_SetDriveMode(RED_DM_ALG_HIZ);
 1167              		.loc 1 720 0
 1168 0056 0020     		movs	r0, #0
 1169 0058 FFF7FEFF 		bl	RED_SetDriveMode
 721:BLEApplications.c **** 				GREEN_SetDriveMode(GREEN_DM_ALG_HIZ);
 1170              		.loc 1 721 0
 1171 005c 0020     		movs	r0, #0
 1172 005e FFF7FEFF 		bl	GREEN_SetDriveMode
ARM GAS  C:\Users\Jack\AppData\Local\Temp\ccYWX8Tu.s 			page 36


 722:BLEApplications.c **** 				BLUE_SetDriveMode(BLUE_DM_ALG_HIZ);
 1173              		.loc 1 722 0
 1174 0062 0020     		movs	r0, #0
 1175 0064 FFF7FEFF 		bl	BLUE_SetDriveMode
 1176 0068 05E0     		b	.L70
 1177              	.L71:
 723:BLEApplications.c **** 			}
 724:BLEApplications.c **** 			else
 725:BLEApplications.c **** 			{	
 726:BLEApplications.c **** 				/* Decrement the led_timer as counting method for RGB LED Control. During
 727:BLEApplications.c **** 				* this period, the PrISM is active and drives the signal to display the 
 728:BLEApplications.c **** 				* appropriate color */
 729:BLEApplications.c **** 				led_timer--;
 1178              		.loc 1 729 0
 1179 006a 134B     		ldr	r3, .L73+8
 1180 006c 1B78     		ldrb	r3, [r3]
 1181 006e 013B     		subs	r3, r3, #1
 1182 0070 DAB2     		uxtb	r2, r3
 1183 0072 114B     		ldr	r3, .L73+8
 1184 0074 1A70     		strb	r2, [r3]
 1185              	.L70:
 730:BLEApplications.c **** 			}
 731:BLEApplications.c **** 		}
 732:BLEApplications.c **** 		
 733:BLEApplications.c **** 		/* Unlock the WDT registers for modification */
 734:BLEApplications.c **** 		CySysWdtUnlock();
 1186              		.loc 1 734 0
 1187 0076 FFF7FEFF 		bl	CySysWdtUnlock
 735:BLEApplications.c **** 		
 736:BLEApplications.c **** 		/* Disable Counter 0 to allow modifications */
 737:BLEApplications.c **** 		CySysWdtDisable(CY_SYS_WDT_COUNTER0_MASK);
 1188              		.loc 1 737 0
 1189 007a 0120     		movs	r0, #1
 1190 007c FFF7FEFF 		bl	CySysWdtDisable
 738:BLEApplications.c **** 		
 739:BLEApplications.c **** 		/* Reset Counter 0 and give ~3 LFCLK cycles to take effect */
 740:BLEApplications.c **** 		CySysWdtResetCounters(CY_SYS_WDT_COUNTER0_RESET);
 1191              		.loc 1 740 0
 1192 0080 0820     		movs	r0, #8
 1193 0082 FFF7FEFF 		bl	CySysWdtResetCounters
 741:BLEApplications.c **** 		CyDelayUs(WATCHDOG_REG_UPDATE_WAIT_TIME);
 1194              		.loc 1 741 0
 1195 0086 6420     		movs	r0, #100
 1196 0088 FFF7FEFF 		bl	CyDelayUs
 742:BLEApplications.c **** 		
 743:BLEApplications.c **** 		/* Write the Counter 0 match value for 1 second and give ~3 LFCLK
 744:BLEApplications.c **** 		* cycles to take effect */
 745:BLEApplications.c **** 		CySysWdtWriteMatch(CY_SYS_WDT_COUNTER0, WATCHDOG_ONE_SEC_COUNT_VAL);
 1197              		.loc 1 745 0
 1198 008c 8023     		movs	r3, #128
 1199 008e 1B02     		lsls	r3, r3, #8
 1200 0090 1900     		movs	r1, r3
 1201 0092 0020     		movs	r0, #0
 1202 0094 FFF7FEFF 		bl	CySysWdtSetMatch
 746:BLEApplications.c **** 		CyDelayUs(WATCHDOG_REG_UPDATE_WAIT_TIME);
 1203              		.loc 1 746 0
 1204 0098 6420     		movs	r0, #100
ARM GAS  C:\Users\Jack\AppData\Local\Temp\ccYWX8Tu.s 			page 37


 1205 009a FFF7FEFF 		bl	CyDelayUs
 747:BLEApplications.c **** 		
 748:BLEApplications.c **** 		/* Enable Watchdog Counter 0 */
 749:BLEApplications.c **** 		CySysWdtEnable(CY_SYS_WDT_COUNTER0_MASK);
 1206              		.loc 1 749 0
 1207 009e 0120     		movs	r0, #1
 1208 00a0 FFF7FEFF 		bl	CySysWdtEnable
 750:BLEApplications.c **** 		
 751:BLEApplications.c **** 		/* Lock Watchdog to prevent any further change */
 752:BLEApplications.c **** 	    CySysWdtLock();
 1209              		.loc 1 752 0
 1210 00a4 FFF7FEFF 		bl	CySysWdtLock
 1211              	.L72:
 753:BLEApplications.c **** 	}
 754:BLEApplications.c **** }
 1212              		.loc 1 754 0
 1213 00a8 C046     		nop
 1214 00aa BD46     		mov	sp, r7
 1215              		@ sp needed
 1216 00ac 80BD     		pop	{r7, pc}
 1217              	.L74:
 1218 00ae C046     		.align	2
 1219              	.L73:
 1220 00b0 00000000 		.word	switch_off_status_led
 1221 00b4 00000000 		.word	timer_tick
 1222 00b8 00000000 		.word	led_timer
 1223 00bc 00000000 		.word	shut_down_led
 1224              		.cfi_endproc
 1225              	.LFE41:
 1226              		.size	WDT_INT_Handler, .-WDT_INT_Handler
 1227              		.section	.text.InitializeWatchdog,"ax",%progbits
 1228              		.align	2
 1229              		.global	InitializeWatchdog
 1230              		.code	16
 1231              		.thumb_func
 1232              		.type	InitializeWatchdog, %function
 1233              	InitializeWatchdog:
 1234              	.LFB42:
 755:BLEApplications.c **** 
 756:BLEApplications.c **** /*******************************************************************************
 757:BLEApplications.c **** * Function Name: InitializeWatchdog
 758:BLEApplications.c **** ********************************************************************************
 759:BLEApplications.c **** * Summary:
 760:BLEApplications.c **** *        Reset watchdog timer
 761:BLEApplications.c **** *
 762:BLEApplications.c **** * Parameters:
 763:BLEApplications.c **** *  void
 764:BLEApplications.c **** *
 765:BLEApplications.c **** * Return:
 766:BLEApplications.c **** *  void
 767:BLEApplications.c **** *
 768:BLEApplications.c **** *******************************************************************************/
 769:BLEApplications.c **** void InitializeWatchdog(void)
 770:BLEApplications.c **** {
 1235              		.loc 1 770 0
 1236              		.cfi_startproc
 1237              		@ args = 0, pretend = 0, frame = 0
ARM GAS  C:\Users\Jack\AppData\Local\Temp\ccYWX8Tu.s 			page 38


 1238              		@ frame_needed = 1, uses_anonymous_args = 0
 1239 0000 80B5     		push	{r7, lr}
 1240              		.cfi_def_cfa_offset 8
 1241              		.cfi_offset 7, -8
 1242              		.cfi_offset 14, -4
 1243 0002 00AF     		add	r7, sp, #0
 1244              		.cfi_def_cfa_register 7
 771:BLEApplications.c **** 	/* Unlock the WDT registers for modification */
 772:BLEApplications.c **** 	CySysWdtUnlock(); 
 1245              		.loc 1 772 0
 1246 0004 FFF7FEFF 		bl	CySysWdtUnlock
 773:BLEApplications.c **** 	
 774:BLEApplications.c **** 	/* Write Mode for Counter 0 as Interrupt on Match */
 775:BLEApplications.c ****     CySysWdtWriteMode(CY_SYS_WDT_COUNTER0, CY_SYS_WDT_MODE_INT);
 1247              		.loc 1 775 0
 1248 0008 0121     		movs	r1, #1
 1249 000a 0020     		movs	r0, #0
 1250 000c FFF7FEFF 		bl	CySysWdtSetMode
 776:BLEApplications.c **** 	
 777:BLEApplications.c **** 	/* Set Clear on Match for Counter 0*/
 778:BLEApplications.c **** 	CySysWdtWriteClearOnMatch(CY_SYS_WDT_COUNTER0, TRUE);
 1251              		.loc 1 778 0
 1252 0010 0121     		movs	r1, #1
 1253 0012 0020     		movs	r0, #0
 1254 0014 FFF7FEFF 		bl	CySysWdtSetClearOnMatch
 779:BLEApplications.c ****     
 780:BLEApplications.c **** 	/* Set Watchdog interrupt to lower priority */
 781:BLEApplications.c **** 	CyIntSetPriority(WATCHDOG_INT_VEC_NUM, WATCHDOG_INT_VEC_PRIORITY);
 1255              		.loc 1 781 0
 1256 0018 0321     		movs	r1, #3
 1257 001a 0820     		movs	r0, #8
 1258 001c FFF7FEFF 		bl	CyIntSetPriority
 782:BLEApplications.c **** 	
 783:BLEApplications.c **** 	/* Enable Watchdog Interrupt using Interrupt number */
 784:BLEApplications.c ****     CyIntEnable(WATCHDOG_INT_VEC_NUM);
 1259              		.loc 1 784 0
 1260 0020 0820     		movs	r0, #8
 1261 0022 FFF7FEFF 		bl	CyIntEnable
 785:BLEApplications.c **** 	
 786:BLEApplications.c **** 	/* Write the match value equal to 1 second in Counter 0 */
 787:BLEApplications.c **** 	CySysWdtWriteMatch(CY_SYS_WDT_COUNTER0, WATCHDOG_ONE_SEC_COUNT_VAL);
 1262              		.loc 1 787 0
 1263 0026 8023     		movs	r3, #128
 1264 0028 1B02     		lsls	r3, r3, #8
 1265 002a 1900     		movs	r1, r3
 1266 002c 0020     		movs	r0, #0
 1267 002e FFF7FEFF 		bl	CySysWdtSetMatch
 788:BLEApplications.c ****     
 789:BLEApplications.c **** 	/* Enable Counter 0 */
 790:BLEApplications.c ****     CySysWdtEnable(CY_SYS_WDT_COUNTER0_MASK);
 1268              		.loc 1 790 0
 1269 0032 0120     		movs	r0, #1
 1270 0034 FFF7FEFF 		bl	CySysWdtEnable
 791:BLEApplications.c **** 	
 792:BLEApplications.c **** 	/* Lock Watchdog to prevent further changes */
 793:BLEApplications.c ****     CySysWdtLock();
 1271              		.loc 1 793 0
ARM GAS  C:\Users\Jack\AppData\Local\Temp\ccYWX8Tu.s 			page 39


 1272 0038 FFF7FEFF 		bl	CySysWdtLock
 794:BLEApplications.c **** }
 1273              		.loc 1 794 0
 1274 003c C046     		nop
 1275 003e BD46     		mov	sp, r7
 1276              		@ sp needed
 1277 0040 80BD     		pop	{r7, pc}
 1278              		.cfi_endproc
 1279              	.LFE42:
 1280              		.size	InitializeWatchdog, .-InitializeWatchdog
 1281 0042 C046     		.data
 1282              		.type	state.7651, %object
 1283              		.size	state.7651, 1
 1284              	state.7651:
 1285 000d FF       		.byte	-1
 1286 000e 0000     		.align	2
 1287              		.type	led_counter.7650, %object
 1288              		.size	led_counter.7650, 4
 1289              	led_counter.7650:
 1290 0010 01000000 		.word	1
 1291              		.text
 1292              	.Letext0:
 1293              		.file 2 "Generated_Source\\PSoC4/cytypes.h"
 1294              		.file 3 "Generated_Source\\PSoC4/BLE_StackGap.h"
 1295              		.file 4 "Generated_Source\\PSoC4/BLE_StackGatt.h"
 1296              		.file 5 "Generated_Source\\PSoC4/BLE_StackGattServer.h"
 1297              		.file 6 "Generated_Source\\PSoC4/BLE_Stack.h"
 1298              		.file 7 "Generated_Source\\PSoC4/BLE_eventHandler.h"