ARM GAS  C:\Users\Jack\AppData\Local\Temp\ccYWX8Tu.s 			page 1


   1              		.syntax unified
   2              		.cpu cortex-m0
   3              		.fpu softvfp
   4              		.eabi_attribute 20, 1
   5              		.eabi_attribute 21, 1
   6              		.eabi_attribute 23, 3
   7              		.eabi_attribute 24, 1
   8              		.eabi_attribute 25, 1
   9              		.eabi_attribute 26, 1
  10              		.eabi_attribute 30, 6
  11              		.eabi_attribute 34, 0
  12              		.eabi_attribute 18, 4
  13              		.thumb
  14              		.syntax unified
  15              		.file	"BLEApplications.c"
  16              		.text
  17              	.Ltext0:
  18              		.cfi_sections	.debug_frame
  19              		.comm	connectionHandle,2,4
  20              		.comm	rgbHandle,12,4
  21              		.global	sendCapSenseSliderNotifications
  22              		.bss
  23              		.type	sendCapSenseSliderNotifications, %object
  24              		.size	sendCapSenseSliderNotifications, 1
  25              	sendCapSenseSliderNotifications:
  26 0000 00       		.space	1
  27              		.global	rgbledNotifications
  28              		.type	rgbledNotifications, %object
  29              		.size	rgbledNotifications, 1
  30              	rgbledNotifications:
  31 0001 00       		.space	1
  32              		.comm	RGBledData,4,4
  33              		.global	deviceConnected
  34              		.type	deviceConnected, %object
  35              		.size	deviceConnected, 1
  36              	deviceConnected:
  37 0002 00       		.space	1
  38              		.global	restartAdvertisement
  39              		.type	restartAdvertisement, %object
  40              		.size	restartAdvertisement, 1
  41              	restartAdvertisement:
  42 0003 00       		.space	1
  43              		.global	enableCapSenseData
  44              		.type	enableCapSenseData, %object
  45              		.size	enableCapSenseData, 1
  46              	enableCapSenseData:
  47 0004 00       		.space	1
  48              		.data
  49              		.type	isConnectionUpdateRequested, %object
  50              		.size	isConnectionUpdateRequested, 1
  51              	isConnectionUpdateRequested:
  52 0000 01       		.byte	1
  53 0001 000000   		.align	2
  54              		.type	ConnectionParam, %object
  55              		.size	ConnectionParam, 8
  56              	ConnectionParam:
  57 0004 3200     		.short	50
ARM GAS  C:\Users\Jack\AppData\Local\Temp\ccYWX8Tu.s 			page 2


  58 0006 3400     		.short	52
  59 0008 0400     		.short	4
  60 000a C800     		.short	200
  61              		.global	shut_down_led
  62              		.type	shut_down_led, %object
  63              		.size	shut_down_led, 1
  64              	shut_down_led:
  65 000c 01       		.byte	1
  66              		.global	led_timer
  67              		.bss
  68              		.type	led_timer, %object
  69              		.size	led_timer, 1
  70              	led_timer:
  71 0005 00       		.space	1
  72              		.global	timer_tick
  73              		.type	timer_tick, %object
  74              		.size	timer_tick, 1
  75              	timer_tick:
  76 0006 00       		.space	1
  77              		.global	switch_off_status_led
  78              		.type	switch_off_status_led, %object
  79              		.size	switch_off_status_led, 1
  80              	switch_off_status_led:
  81 0007 00       		.space	1
  82              		.global	busyStatus
  83              		.type	busyStatus, %object
  84              		.size	busyStatus, 1
  85              	busyStatus:
  86 0008 00       		.space	1
  87              		.comm	CapSenseCCCDvalue,2,4
  88              		.comm	RGBCCCDvalue,2,4
  89              		.comm	CapSenseNotificationCCCDhandle,12,4
  90              		.comm	RGBNotificationCCCDhandle,12,4
  91              		.section	.text.CustomEventHandler,"ax",%progbits
  92              		.align	2
  93              		.global	CustomEventHandler
  94              		.code	16
  95              		.thumb_func
  96              		.type	CustomEventHandler, %function
  97              	CustomEventHandler:
  98              	.LFB35:
  99              		.file 1 "BLEApplications.c"
   1:BLEApplications.c **** /******************************************************************************
   2:BLEApplications.c **** * Project Name		: PSoC_4_BLE_CapSense_Slider_LED
   3:BLEApplications.c **** * File Name			: BLEApplications.c
   4:BLEApplications.c **** * Version 			: 1.0
   5:BLEApplications.c **** * Device Used		: CY8C4248LQI-BL583
   6:BLEApplications.c **** * Software Used		: PSoC Creator 4.2
   7:BLEApplications.c **** * Compiler    		: ARM GCC 5.4.1
   8:BLEApplications.c **** * Related Hardware	: CY8CKIT-042-BLE-A Bluetooth Low Energy Pioneer Kit
   9:BLEApplications.c **** ******************************************************************************
  10:BLEApplications.c **** * Copyright (2018), Cypress Semiconductor Corporation. All rights reserved.
  11:BLEApplications.c **** *******************************************************************************
  12:BLEApplications.c **** * This software, including source code, documentation and related materials
  13:BLEApplications.c **** * (“Software”), is owned by Cypress Semiconductor Corporation or one of its
  14:BLEApplications.c **** * subsidiaries (“Cypress”) and is protected by and subject to worldwide patent
  15:BLEApplications.c **** * protection (United States and foreign), United States copyright laws and
ARM GAS  C:\Users\Jack\AppData\Local\Temp\ccYWX8Tu.s 			page 3


  16:BLEApplications.c **** * international treaty provisions. Therefore, you may use this Software only
  17:BLEApplications.c **** * as provided in the license agreement accompanying the software package from
  18:BLEApplications.c **** * which you obtained this Software (“EULA”).
  19:BLEApplications.c **** *
  20:BLEApplications.c **** * If no EULA applies, Cypress hereby grants you a personal, nonexclusive,
  21:BLEApplications.c **** * non-transferable license to copy, modify, and compile the Software source
  22:BLEApplications.c **** * code solely for use in connection with Cypress’s integrated circuit products.
  23:BLEApplications.c **** * Any reproduction, modification, translation, compilation, or representation
  24:BLEApplications.c **** * of this Software except as specified above is prohibited without the express
  25:BLEApplications.c **** * written permission of Cypress.
  26:BLEApplications.c **** *
  27:BLEApplications.c **** * Disclaimer: THIS SOFTWARE IS PROVIDED AS-IS, WITH NO WARRANTY OF ANY KIND, 
  28:BLEApplications.c **** * EXPRESS OR IMPLIED, INCLUDING, BUT NOT LIMITED TO, NONINFRINGEMENT, IMPLIED 
  29:BLEApplications.c **** * WARRANTIES OF MERCHANTABILITY AND FITNESS FOR A PARTICULAR PURPOSE. Cypress 
  30:BLEApplications.c **** * reserves the right to make changes to the Software without notice. Cypress 
  31:BLEApplications.c **** * does not assume any liability arising out of the application or use of the 
  32:BLEApplications.c **** * Software or any product or circuit described in the Software. Cypress does 
  33:BLEApplications.c **** * not authorize its products for use in any products where a malfunction or 
  34:BLEApplications.c **** * failure of the Cypress product may reasonably be expected to result in 
  35:BLEApplications.c **** * significant property damage, injury or death (“High Risk Product”). By 
  36:BLEApplications.c **** * including Cypress’s product in a High Risk Product, the manufacturer of such 
  37:BLEApplications.c **** * system or application assumes all risk of such use and in doing so agrees to 
  38:BLEApplications.c **** * indemnify Cypress against all liability.
  39:BLEApplications.c **** *******************************************************************************/
  40:BLEApplications.c **** 
  41:BLEApplications.c **** #include <main.h>
  42:BLEApplications.c **** 
  43:BLEApplications.c **** /**************************Variable Declarations*****************************/
  44:BLEApplications.c **** /* 'connectionHandle' stores connection parameters */
  45:BLEApplications.c **** CYBLE_CONN_HANDLE_T  connectionHandle;
  46:BLEApplications.c **** 
  47:BLEApplications.c **** /* 'rgbHandle' stores RGB control data parameters */
  48:BLEApplications.c **** CYBLE_GATT_HANDLE_VALUE_PAIR_T		rgbHandle;	
  49:BLEApplications.c **** 
  50:BLEApplications.c **** /*This flag is set when the Central device writes to CCCD (Client Characteristic 
  51:BLEApplications.c **** * Configuration Descriptor) of the CapSense slider Characteristic to enable 
  52:BLEApplications.c **** * notifications */
  53:BLEApplications.c **** uint8 sendCapSenseSliderNotifications = FALSE;	
  54:BLEApplications.c **** 
  55:BLEApplications.c **** /*This flag is set when the Central device writes to CCCD of the 
  56:BLEApplications.c **** * RGB LED Characteristic to enable notifications */
  57:BLEApplications.c **** uint8 rgbledNotifications = FALSE;
  58:BLEApplications.c **** 
  59:BLEApplications.c **** /* Array to store the present RGB LED control data. The 4 bytes 
  60:BLEApplications.c **** * of the array represent {R,G,B,Intensity} */
  61:BLEApplications.c **** uint8 RGBledData[RGB_CHAR_DATA_LEN];
  62:BLEApplications.c **** 
  63:BLEApplications.c **** /* This flag is used by application to know whether a Central 
  64:BLEApplications.c **** * device has been connected. This is updated in BLE event callback 
  65:BLEApplications.c **** * function*/
  66:BLEApplications.c **** uint8 deviceConnected = FALSE;
  67:BLEApplications.c **** 
  68:BLEApplications.c **** /* 'restartAdvertisement' flag provides the present state of power mode in firmware */
  69:BLEApplications.c **** uint8 restartAdvertisement = FALSE;
  70:BLEApplications.c **** 
  71:BLEApplications.c **** /*'enableCapSenseData' flag is set after the Connection LED off status is received.
  72:BLEApplications.c ****   This flag ensures that the CapSense related scanning does not increase the loop 
ARM GAS  C:\Users\Jack\AppData\Local\Temp\ccYWX8Tu.s 			page 4


  73:BLEApplications.c ****   time of firmware, causing the LED to be always ON.*/
  74:BLEApplications.c **** uint8 enableCapSenseData = FALSE;	
  75:BLEApplications.c **** 
  76:BLEApplications.c **** /* This flag is used to let application send a L2CAP connection update request
  77:BLEApplications.c **** * to Central device */
  78:BLEApplications.c **** static uint8 isConnectionUpdateRequested = TRUE;
  79:BLEApplications.c **** 
  80:BLEApplications.c **** /* Connection Parameter update values. These values are used by the BLE component
  81:BLEApplications.c **** * to update the connection parameters, including connection interval, to desired 
  82:BLEApplications.c **** * value */
  83:BLEApplications.c **** static CYBLE_GAP_CONN_UPDATE_PARAM_T ConnectionParam =
  84:BLEApplications.c **** {
  85:BLEApplications.c ****     CONN_PARAM_UPDATE_MIN_CONN_INTERVAL,  		      
  86:BLEApplications.c ****     CONN_PARAM_UPDATE_MAX_CONN_INTERVAL,		       
  87:BLEApplications.c ****     CONN_PARAM_UPDATE_SLAVE_LATENCY,			    
  88:BLEApplications.c ****     CONN_PARAM_UPDATE_SUPRV_TIMEOUT 			         	
  89:BLEApplications.c **** };
  90:BLEApplications.c **** 
  91:BLEApplications.c **** /* This flag is used to switch between CPU Deep Sleep and Sleep, depending on
  92:BLEApplications.c **** * the status of RGB LED color values received. This method allows to conserve 
  93:BLEApplications.c **** * more power during LED usage */
  94:BLEApplications.c **** uint8 shut_down_led = TRUE;
  95:BLEApplications.c **** 
  96:BLEApplications.c **** /* Counter to keep the LED ON for a selected period before shutting the LEDs down */
  97:BLEApplications.c **** uint8 led_timer = FALSE;
  98:BLEApplications.c **** 
  99:BLEApplications.c **** /* Counter to allow an initial 3 second Status LED ON for indicating connection */
 100:BLEApplications.c **** uint8 timer_tick = FALSE;
 101:BLEApplications.c **** 
 102:BLEApplications.c **** /* Flag to switch off the LED after connection */
 103:BLEApplications.c **** uint8 switch_off_status_led = FALSE;
 104:BLEApplications.c **** 
 105:BLEApplications.c **** /* Status flag for the Stack Busy state. This flag is used to notify the application 
 106:BLEApplications.c **** * whether there is stack buffer free to push more data or not */
 107:BLEApplications.c **** uint8 busyStatus = 0;
 108:BLEApplications.c **** 
 109:BLEApplications.c **** /* Local variable to store the current CCCD value */
 110:BLEApplications.c **** uint8 CapSenseCCCDvalue[2];
 111:BLEApplications.c **** uint8 RGBCCCDvalue[2];
 112:BLEApplications.c **** 
 113:BLEApplications.c **** /* Handle value to update the CCCD */
 114:BLEApplications.c **** CYBLE_GATT_HANDLE_VALUE_PAIR_T CapSenseNotificationCCCDhandle;
 115:BLEApplications.c **** 
 116:BLEApplications.c **** /* Handle value to update the CCCD */
 117:BLEApplications.c **** CYBLE_GATT_HANDLE_VALUE_PAIR_T RGBNotificationCCCDhandle;
 118:BLEApplications.c **** 
 119:BLEApplications.c **** 
 120:BLEApplications.c **** /****************************************************************************/
 121:BLEApplications.c **** 
 122:BLEApplications.c **** /*******************************************************************************
 123:BLEApplications.c **** * Function Name: CustomEventHandler
 124:BLEApplications.c **** ********************************************************************************
 125:BLEApplications.c **** * Summary:
 126:BLEApplications.c **** *        Call back event function to handle various events from BLE stack
 127:BLEApplications.c **** *
 128:BLEApplications.c **** * Parameters:
 129:BLEApplications.c **** *  uint32 event:		event returned
ARM GAS  C:\Users\Jack\AppData\Local\Temp\ccYWX8Tu.s 			page 5


 130:BLEApplications.c **** *  void * eventParam:	link to value of the events returned
 131:BLEApplications.c **** *
 132:BLEApplications.c **** * Return:
 133:BLEApplications.c **** *  void
 134:BLEApplications.c **** *
 135:BLEApplications.c **** *******************************************************************************/
 136:BLEApplications.c **** void CustomEventHandler(uint32 event, void * eventParam)
 137:BLEApplications.c **** {
 100              		.loc 1 137 0
 101              		.cfi_startproc
 102              		@ args = 0, pretend = 0, frame = 16
 103              		@ frame_needed = 1, uses_anonymous_args = 0
 104 0000 80B5     		push	{r7, lr}
 105              		.cfi_def_cfa_offset 8
 106              		.cfi_offset 7, -8
 107              		.cfi_offset 14, -4
 108 0002 84B0     		sub	sp, sp, #16
 109              		.cfi_def_cfa_offset 24
 110 0004 00AF     		add	r7, sp, #0
 111              		.cfi_def_cfa_register 7
 112 0006 7860     		str	r0, [r7, #4]
 113 0008 3960     		str	r1, [r7]
 138:BLEApplications.c **** 	/* Local variable to store the data received as part of the Write request 
 139:BLEApplications.c **** 	* events */
 140:BLEApplications.c **** 	CYBLE_GATTS_WRITE_REQ_PARAM_T *wrReqParam;
 141:BLEApplications.c **** 
 142:BLEApplications.c ****     switch(event)
 114              		.loc 1 142 0
 115 000a 7B68     		ldr	r3, [r7, #4]
 116 000c 272B     		cmp	r3, #39
 117 000e 00D1     		bne	.LCB16
 118 0010 14E1     		b	.L25	@long jump
 119              	.LCB16:
 120 0012 0CD8     		bhi	.L4
 121 0014 022B     		cmp	r3, #2
 122 0016 00D1     		bne	.LCB20
 123 0018 12E1     		b	.L26	@long jump
 124              	.LCB20:
 125 001a 02D8     		bhi	.L6
 126 001c 012B     		cmp	r3, #1
 127 001e 14D0     		beq	.L7
 143:BLEApplications.c ****     {
 144:BLEApplications.c ****         case CYBLE_EVT_STACK_ON:
 145:BLEApplications.c **** 			/* This event is received when component is Started */
 146:BLEApplications.c **** 			
 147:BLEApplications.c **** 			/* Set restartAdvertisement flag to allow calling Advertisement 
 148:BLEApplications.c **** 			* API from main function */
 149:BLEApplications.c **** 			restartAdvertisement = TRUE;
 150:BLEApplications.c **** 			
 151:BLEApplications.c **** 			break;
 152:BLEApplications.c **** 			
 153:BLEApplications.c **** 		case CYBLE_EVT_TIMEOUT:
 154:BLEApplications.c **** 			/* Event Handling for Timeout  */
 155:BLEApplications.c **** 	
 156:BLEApplications.c **** 			break;
 157:BLEApplications.c ****         
 158:BLEApplications.c **** 		/**********************************************************
ARM GAS  C:\Users\Jack\AppData\Local\Temp\ccYWX8Tu.s 			page 6


 159:BLEApplications.c ****         *                       GAP Events
 160:BLEApplications.c ****         ***********************************************************/
 161:BLEApplications.c **** 		case CYBLE_EVT_GAPP_ADVERTISEMENT_START_STOP:
 162:BLEApplications.c **** 			
 163:BLEApplications.c **** 			/* If the current BLE state is Disconnected, then the Advertisement
 164:BLEApplications.c **** 			* Start Stop event implies that advertisement has stopped */
 165:BLEApplications.c **** 			if(CyBle_GetState() == CYBLE_STATE_DISCONNECTED)
 166:BLEApplications.c **** 			{
 167:BLEApplications.c **** 				/* Set restartAdvertisement flag to allow calling Advertisement 
 168:BLEApplications.c **** 				* API from main function */
 169:BLEApplications.c **** 				restartAdvertisement = TRUE;
 170:BLEApplications.c **** 			}
 171:BLEApplications.c **** 			break;
 172:BLEApplications.c **** 			
 173:BLEApplications.c **** 		case CYBLE_EVT_GAP_DEVICE_CONNECTED: 					
 174:BLEApplications.c **** 			/* This event is received when device is connected over GAP layer */
 175:BLEApplications.c **** 			break;
 176:BLEApplications.c **** 
 177:BLEApplications.c **** 			
 178:BLEApplications.c ****         case CYBLE_EVT_GAP_DEVICE_DISCONNECTED:
 179:BLEApplications.c **** 			/* This event is received when device is disconnected */
 180:BLEApplications.c **** 			
 181:BLEApplications.c **** 			/* Set restartAdvertisement flag to allow calling Advertisement 
 182:BLEApplications.c **** 			* API from main function */
 183:BLEApplications.c **** 			restartAdvertisement = TRUE;
 184:BLEApplications.c **** 			
 185:BLEApplications.c **** 			/* Set flag to allow system to go to Deep Sleep */
 186:BLEApplications.c **** 			shut_down_led = TRUE;
 187:BLEApplications.c **** 			break;
 188:BLEApplications.c ****         
 189:BLEApplications.c **** 		/**********************************************************
 190:BLEApplications.c ****         *                       GATT Events
 191:BLEApplications.c ****         ***********************************************************/
 192:BLEApplications.c ****         case CYBLE_EVT_GATT_CONNECT_IND:
 193:BLEApplications.c **** 			/* This event is received when device is connected over GATT level */
 194:BLEApplications.c **** 			
 195:BLEApplications.c **** 			/* Update attribute handle on GATT Connection*/
 196:BLEApplications.c ****             connectionHandle = *(CYBLE_CONN_HANDLE_T  *)eventParam;
 197:BLEApplications.c **** 			
 198:BLEApplications.c **** 			/* This flag is used in application to check connection status */
 199:BLEApplications.c **** 			deviceConnected = TRUE;
 200:BLEApplications.c **** 			break;
 201:BLEApplications.c ****         
 202:BLEApplications.c ****         case CYBLE_EVT_GATT_DISCONNECT_IND:
 203:BLEApplications.c **** 			/* This event is received when device is disconnected */
 204:BLEApplications.c **** 			
 205:BLEApplications.c **** 			/* Update deviceConnected flag*/
 206:BLEApplications.c **** 			deviceConnected = FALSE;
 207:BLEApplications.c **** 			
 208:BLEApplications.c **** 			/* Reset CapSense notification flag to prevent further notifications
 209:BLEApplications.c **** 			 * being sent to Central device after next connection. */
 210:BLEApplications.c **** 			sendCapSenseSliderNotifications = FALSE;
 211:BLEApplications.c **** 			
 212:BLEApplications.c **** 			/* Reset RGB notification flag to prevent further notifications
 213:BLEApplications.c **** 			 * being sent to Central device after next connection. */
 214:BLEApplications.c **** 			rgbledNotifications = FALSE;
 215:BLEApplications.c **** 			
ARM GAS  C:\Users\Jack\AppData\Local\Temp\ccYWX8Tu.s 			page 7


 216:BLEApplications.c **** 			/* Reset the CCCD value to disable notifications */
 217:BLEApplications.c ****     		/* Write the present CapSense notification status to the local variable */
 218:BLEApplications.c ****     		CapSenseCCCDvalue[0] = sendCapSenseSliderNotifications;
 219:BLEApplications.c ****     		CapSenseCCCDvalue[1] = 0x00;
 220:BLEApplications.c ****     		
 221:BLEApplications.c ****     		/* Update CCCD handle with notification status data*/
 222:BLEApplications.c ****     		CapSenseNotificationCCCDhandle.attrHandle = CYBLE_CAPSENSE_CAPSENSE_SLIDER_CLIENT_CHARACTERIS
 223:BLEApplications.c ****     		CapSenseNotificationCCCDhandle.value.val = CapSenseCCCDvalue;
 224:BLEApplications.c ****     		CapSenseNotificationCCCDhandle.value.len = CCCD_DATA_LEN;
 225:BLEApplications.c ****     		
 226:BLEApplications.c ****     		/* Report data to BLE component for sending data when read by Central device */
 227:BLEApplications.c ****     		CyBle_GattsWriteAttributeValue(&CapSenseNotificationCCCDhandle, ZERO, &connectionHandle, CYBL
 228:BLEApplications.c **** 		
 229:BLEApplications.c ****     		/* Write the present RGB notification status to the local variable */
 230:BLEApplications.c ****     		RGBCCCDvalue[0] = rgbledNotifications;
 231:BLEApplications.c ****     		RGBCCCDvalue[1] = 0x00;
 232:BLEApplications.c ****     		
 233:BLEApplications.c ****     		/* Update CCCD handle with notification status data*/
 234:BLEApplications.c ****     		RGBNotificationCCCDhandle.attrHandle = CYBLE_RGB_LED_RGB_LED_CONTROL_CLIENT_CHARACTERISTIC_CO
 235:BLEApplications.c ****     		RGBNotificationCCCDhandle.value.val = RGBCCCDvalue;
 236:BLEApplications.c ****     		RGBNotificationCCCDhandle.value.len = CCCD_DATA_LEN;
 237:BLEApplications.c ****     		
 238:BLEApplications.c ****     		/* Report data to BLE component for sending data when read by Central device */
 239:BLEApplications.c ****     		CyBle_GattsWriteAttributeValue(&RGBNotificationCCCDhandle, ZERO, &connectionHandle, CYBLE_GAT
 240:BLEApplications.c **** 			
 241:BLEApplications.c **** 			/* Reset the color coordinates */
 242:BLEApplications.c **** 			RGBledData[RED_INDEX] = ZERO;
 243:BLEApplications.c ****             RGBledData[GREEN_INDEX] = ZERO;
 244:BLEApplications.c ****             RGBledData[BLUE_INDEX] = ZERO;
 245:BLEApplications.c ****             RGBledData[INTENSITY_INDEX] = ZERO;
 246:BLEApplications.c **** 			UpdateRGBled();
 247:BLEApplications.c **** 
 248:BLEApplications.c **** 			/* Reset the isConnectionUpdateRequested flag to allow sending
 249:BLEApplications.c **** 			* connection parameter update request in next connection */
 250:BLEApplications.c **** 			isConnectionUpdateRequested = TRUE;
 251:BLEApplications.c **** 			
 252:BLEApplications.c **** 			/* Set the flag to allow system to go to Deep Sleep */
 253:BLEApplications.c **** 			shut_down_led = TRUE;
 254:BLEApplications.c **** 			
 255:BLEApplications.c **** 			break;
 256:BLEApplications.c ****             
 257:BLEApplications.c ****         case CYBLE_EVT_GATTS_WRITE_REQ:
 258:BLEApplications.c **** 			/* This event is received when Central device sends a Write command on an Attribute */
 259:BLEApplications.c ****             wrReqParam = (CYBLE_GATTS_WRITE_REQ_PARAM_T *) eventParam;
 260:BLEApplications.c ****             
 261:BLEApplications.c **** 			/* When this event is triggered, the peripheral has received a write command on the custom chara
 262:BLEApplications.c **** 			/* Check if command is for correct attribute and update the flag for sending Notifications */
 263:BLEApplications.c ****             if(CYBLE_CAPSENSE_CAPSENSE_SLIDER_CLIENT_CHARACTERISTIC_CONFIGURATION_DESC_HANDLE == wr
 264:BLEApplications.c **** 			{
 265:BLEApplications.c **** 				/* Extract the Write value sent by the Client for CapSense Slider CCCD */
 266:BLEApplications.c ****                 if(wrReqParam->handleValPair.value.val[CYBLE_CAPSENSE_CAPSENSE_SLIDER_CLIENT_CHARAC
 267:BLEApplications.c ****                 {
 268:BLEApplications.c ****                     sendCapSenseSliderNotifications = TRUE;
 269:BLEApplications.c ****                 }
 270:BLEApplications.c ****                 else if(wrReqParam->handleValPair.value.val[CYBLE_CAPSENSE_CAPSENSE_SLIDER_CLIENT_C
 271:BLEApplications.c ****                 {
 272:BLEApplications.c ****                     sendCapSenseSliderNotifications = FALSE;
ARM GAS  C:\Users\Jack\AppData\Local\Temp\ccYWX8Tu.s 			page 8


 273:BLEApplications.c ****                 }
 274:BLEApplications.c **** 				
 275:BLEApplications.c ****         		/* Write the present CapSense notification status to the local variable */
 276:BLEApplications.c ****         		CapSenseCCCDvalue[0] = sendCapSenseSliderNotifications;
 277:BLEApplications.c ****         		CapSenseCCCDvalue[1] = 0x00;
 278:BLEApplications.c ****         		
 279:BLEApplications.c ****         		/* Update CCCD handle with notification status data*/
 280:BLEApplications.c ****         		CapSenseNotificationCCCDhandle.attrHandle = CYBLE_CAPSENSE_CAPSENSE_SLIDER_CLIENT_CHARACT
 281:BLEApplications.c ****         		CapSenseNotificationCCCDhandle.value.val = CapSenseCCCDvalue;
 282:BLEApplications.c ****         		CapSenseNotificationCCCDhandle.value.len = CCCD_DATA_LEN;
 283:BLEApplications.c ****         		
 284:BLEApplications.c ****         		/* Report data to BLE component for sending data when read by Central device */
 285:BLEApplications.c ****         		CyBle_GattsWriteAttributeValue(&CapSenseNotificationCCCDhandle, ZERO, &connectionHandle, 
 286:BLEApplications.c ****             }
 287:BLEApplications.c **** 			
 288:BLEApplications.c **** 			if(CYBLE_RGB_LED_RGB_LED_CONTROL_CLIENT_CHARACTERISTIC_CONFIGURATION_DESC_HANDLE == wrReqParam->
 289:BLEApplications.c ****             {
 290:BLEApplications.c **** 				/* Extract the Write value sent by the Client for RGB LED CCCD */
 291:BLEApplications.c ****                 if(wrReqParam->handleValPair.value.val[CYBLE_RGB_LED_RGB_LED_CONTROL_CLIENT_CHARACT
 292:BLEApplications.c ****                 {
 293:BLEApplications.c ****                     rgbledNotifications = TRUE;
 294:BLEApplications.c ****                 }
 295:BLEApplications.c ****                 else if(wrReqParam->handleValPair.value.val[CYBLE_RGB_LED_RGB_LED_CONTROL_CLIENT_CH
 296:BLEApplications.c ****                 {
 297:BLEApplications.c ****                     rgbledNotifications = FALSE;
 298:BLEApplications.c ****                 }
 299:BLEApplications.c **** 				
 300:BLEApplications.c ****         		/* Write the present RGB notification status to the local variable */
 301:BLEApplications.c ****         		RGBCCCDvalue[0] = rgbledNotifications;
 302:BLEApplications.c ****         		RGBCCCDvalue[1] = 0x00;
 303:BLEApplications.c ****         		
 304:BLEApplications.c ****         		/* Update CCCD handle with notification status data*/
 305:BLEApplications.c ****         		RGBNotificationCCCDhandle.attrHandle = CYBLE_RGB_LED_RGB_LED_CONTROL_CLIENT_CHARACTERISTI
 306:BLEApplications.c ****         		RGBNotificationCCCDhandle.value.val = RGBCCCDvalue;
 307:BLEApplications.c ****         		RGBNotificationCCCDhandle.value.len = CCCD_DATA_LEN;
 308:BLEApplications.c ****         		
 309:BLEApplications.c ****         		/* Report data to BLE component for sending data when read by Central device */
 310:BLEApplications.c ****         		CyBle_GattsWriteAttributeValue(&RGBNotificationCCCDhandle, ZERO, &connectionHandle, CYBLE
 311:BLEApplications.c **** 				
 312:BLEApplications.c **** 				/* Update the RGB LED Notification attribute with new color coordinates */
 313:BLEApplications.c **** 				SendDataOverRGBledNotification(RGBledData, RGB_CHAR_DATA_LEN);
 314:BLEApplications.c ****             }
 315:BLEApplications.c **** 			
 316:BLEApplications.c **** 			/* Check if the returned handle is matching to RGB LED Control Write Attribute and extract the R
 317:BLEApplications.c ****             if(CYBLE_RGB_LED_RGB_LED_CONTROL_CHAR_HANDLE == wrReqParam->handleValPair.attrHandle)
 318:BLEApplications.c ****             {
 319:BLEApplications.c **** 				/* Extract the Write value sent by the Client for RGB LED Color characteristic */
 320:BLEApplications.c ****                 RGBledData[RED_INDEX] = wrReqParam->handleValPair.value.val[RED_INDEX];
 321:BLEApplications.c ****                 RGBledData[GREEN_INDEX] = wrReqParam->handleValPair.value.val[GREEN_INDEX];
 322:BLEApplications.c ****                 RGBledData[BLUE_INDEX] = wrReqParam->handleValPair.value.val[BLUE_INDEX];
 323:BLEApplications.c ****                 RGBledData[INTENSITY_INDEX] = wrReqParam->handleValPair.value.val[INTENSITY_INDEX];
 324:BLEApplications.c ****                 
 325:BLEApplications.c **** 				/* Update the PrISM components and the attribute for RGB LED read characteristics*/
 326:BLEApplications.c ****                 UpdateRGBled();
 327:BLEApplications.c ****             }
 328:BLEApplications.c **** 			
 329:BLEApplications.c **** 			/* Send the response to the write request received. */
ARM GAS  C:\Users\Jack\AppData\Local\Temp\ccYWX8Tu.s 			page 9


 330:BLEApplications.c **** 			CyBle_GattsWriteRsp(connectionHandle);
 331:BLEApplications.c **** 			
 332:BLEApplications.c **** 			break;
 333:BLEApplications.c **** 			
 334:BLEApplications.c **** 		case CYBLE_EVT_L2CAP_CONN_PARAM_UPDATE_RSP:
 335:BLEApplications.c **** 				/* If L2CAP connection parameter update response received, reset application flag */
 336:BLEApplications.c ****             	isConnectionUpdateRequested = FALSE;
 337:BLEApplications.c ****             break;
 338:BLEApplications.c **** 			
 339:BLEApplications.c **** 		case CYBLE_EVT_STACK_BUSY_STATUS:
 340:BLEApplications.c **** 			/* This event is generated when the internal stack buffer is full and no more
 341:BLEApplications.c **** 			* data can be accepted or the stack has buffer available and can accept data.
 342:BLEApplications.c **** 			* This event is used by application to prevent pushing lot of data to stack. */
 343:BLEApplications.c **** 			
 344:BLEApplications.c **** 			/* Extract the present stack status */
 345:BLEApplications.c ****             busyStatus = * (uint8*)eventParam;
 346:BLEApplications.c ****             break;
 347:BLEApplications.c **** 			
 348:BLEApplications.c ****         default:
 349:BLEApplications.c **** 
 350:BLEApplications.c ****        	 	break;
 128              		.loc 1 350 0
 129 0020 11E1     		b	.L16
 130              	.L6:
 142:BLEApplications.c ****     {
 131              		.loc 1 142 0
 132 0022 052B     		cmp	r3, #5
 133 0024 00D1     		bne	.LCB30
 134 0026 04E1     		b	.L8	@long jump
 135              	.LCB30:
 136 0028 262B     		cmp	r3, #38
 137 002a 12D0     		beq	.L9
 138              		.loc 1 350 0
 139 002c 0BE1     		b	.L16
 140              	.L4:
 142:BLEApplications.c ****     {
 141              		.loc 1 142 0
 142 002e 422B     		cmp	r3, #66
 143 0030 2BD0     		beq	.L10
 144 0032 04D8     		bhi	.L11
 145 0034 282B     		cmp	r3, #40
 146 0036 15D0     		beq	.L12
 147 0038 412B     		cmp	r3, #65
 148 003a 1AD0     		beq	.L13
 149              		.loc 1 350 0
 150 003c 03E1     		b	.L16
 151              	.L11:
 142:BLEApplications.c ****     {
 152              		.loc 1 142 0
 153 003e 4C2B     		cmp	r3, #76
 154 0040 6DD0     		beq	.L14
 155 0042 712B     		cmp	r3, #113
 156 0044 00D1     		bne	.LCB52
 157 0046 F0E0     		b	.L15	@long jump
 158              	.LCB52:
 159              		.loc 1 350 0
 160 0048 FDE0     		b	.L16
ARM GAS  C:\Users\Jack\AppData\Local\Temp\ccYWX8Tu.s 			page 10


 161              	.L7:
 149:BLEApplications.c **** 			
 162              		.loc 1 149 0
 163 004a 814B     		ldr	r3, .L28
 164 004c 0122     		movs	r2, #1
 165 004e 1A70     		strb	r2, [r3]
 151:BLEApplications.c **** 			
 166              		.loc 1 151 0
 167 0050 F9E0     		b	.L16
 168              	.L9:
 165:BLEApplications.c **** 			{
 169              		.loc 1 165 0
 170 0052 804B     		ldr	r3, .L28+4
 171 0054 1B78     		ldrb	r3, [r3]
 172 0056 042B     		cmp	r3, #4
 173 0058 00D0     		beq	.LCB67
 174 005a F3E0     		b	.L27	@long jump
 175              	.LCB67:
 169:BLEApplications.c **** 			}
 176              		.loc 1 169 0
 177 005c 7C4B     		ldr	r3, .L28
 178 005e 0122     		movs	r2, #1
 179 0060 1A70     		strb	r2, [r3]
 171:BLEApplications.c **** 			
 180              		.loc 1 171 0
 181 0062 EFE0     		b	.L27
 182              	.L12:
 183:BLEApplications.c **** 			
 183              		.loc 1 183 0
 184 0064 7A4B     		ldr	r3, .L28
 185 0066 0122     		movs	r2, #1
 186 0068 1A70     		strb	r2, [r3]
 186:BLEApplications.c **** 			break;
 187              		.loc 1 186 0
 188 006a 7B4B     		ldr	r3, .L28+8
 189 006c 0122     		movs	r2, #1
 190 006e 1A70     		strb	r2, [r3]
 187:BLEApplications.c ****         
 191              		.loc 1 187 0
 192 0070 E9E0     		b	.L16
 193              	.L13:
 196:BLEApplications.c **** 			
 194              		.loc 1 196 0
 195 0072 7A4A     		ldr	r2, .L28+12
 196 0074 3B68     		ldr	r3, [r7]
 197 0076 1000     		movs	r0, r2
 198 0078 1900     		movs	r1, r3
 199 007a 0223     		movs	r3, #2
 200 007c 1A00     		movs	r2, r3
 201 007e FFF7FEFF 		bl	memcpy
 199:BLEApplications.c **** 			break;
 202              		.loc 1 199 0
 203 0082 774B     		ldr	r3, .L28+16
 204 0084 0122     		movs	r2, #1
 205 0086 1A70     		strb	r2, [r3]
 200:BLEApplications.c ****         
 206              		.loc 1 200 0
ARM GAS  C:\Users\Jack\AppData\Local\Temp\ccYWX8Tu.s 			page 11


 207 0088 DDE0     		b	.L16
 208              	.L10:
 206:BLEApplications.c **** 			
 209              		.loc 1 206 0
 210 008a 754B     		ldr	r3, .L28+16
 211 008c 0022     		movs	r2, #0
 212 008e 1A70     		strb	r2, [r3]
 210:BLEApplications.c **** 			
 213              		.loc 1 210 0
 214 0090 744B     		ldr	r3, .L28+20
 215 0092 0022     		movs	r2, #0
 216 0094 1A70     		strb	r2, [r3]
 214:BLEApplications.c **** 			
 217              		.loc 1 214 0
 218 0096 744B     		ldr	r3, .L28+24
 219 0098 0022     		movs	r2, #0
 220 009a 1A70     		strb	r2, [r3]
 218:BLEApplications.c ****     		CapSenseCCCDvalue[1] = 0x00;
 221              		.loc 1 218 0
 222 009c 714B     		ldr	r3, .L28+20
 223 009e 1A78     		ldrb	r2, [r3]
 224 00a0 724B     		ldr	r3, .L28+28
 225 00a2 1A70     		strb	r2, [r3]
 219:BLEApplications.c ****     		
 226              		.loc 1 219 0
 227 00a4 714B     		ldr	r3, .L28+28
 228 00a6 0022     		movs	r2, #0
 229 00a8 5A70     		strb	r2, [r3, #1]
 222:BLEApplications.c ****     		CapSenseNotificationCCCDhandle.value.val = CapSenseCCCDvalue;
 230              		.loc 1 222 0
 231 00aa 714B     		ldr	r3, .L28+32
 232 00ac 0F22     		movs	r2, #15
 233 00ae 1A81     		strh	r2, [r3, #8]
 223:BLEApplications.c ****     		CapSenseNotificationCCCDhandle.value.len = CCCD_DATA_LEN;
 234              		.loc 1 223 0
 235 00b0 6F4B     		ldr	r3, .L28+32
 236 00b2 6E4A     		ldr	r2, .L28+28
 237 00b4 1A60     		str	r2, [r3]
 224:BLEApplications.c ****     		
 238              		.loc 1 224 0
 239 00b6 6E4B     		ldr	r3, .L28+32
 240 00b8 0222     		movs	r2, #2
 241 00ba 9A80     		strh	r2, [r3, #4]
 227:BLEApplications.c **** 		
 242              		.loc 1 227 0
 243 00bc 674A     		ldr	r2, .L28+12
 244 00be 6C48     		ldr	r0, .L28+32
 245 00c0 4023     		movs	r3, #64
 246 00c2 0021     		movs	r1, #0
 247 00c4 FFF7FEFF 		bl	CyBle_GattsWriteAttributeValue
 230:BLEApplications.c ****     		RGBCCCDvalue[1] = 0x00;
 248              		.loc 1 230 0
 249 00c8 674B     		ldr	r3, .L28+24
 250 00ca 1A78     		ldrb	r2, [r3]
 251 00cc 694B     		ldr	r3, .L28+36
 252 00ce 1A70     		strb	r2, [r3]
 231:BLEApplications.c ****     		
ARM GAS  C:\Users\Jack\AppData\Local\Temp\ccYWX8Tu.s 			page 12


 253              		.loc 1 231 0
 254 00d0 684B     		ldr	r3, .L28+36
 255 00d2 0022     		movs	r2, #0
 256 00d4 5A70     		strb	r2, [r3, #1]
 234:BLEApplications.c ****     		RGBNotificationCCCDhandle.value.val = RGBCCCDvalue;
 257              		.loc 1 234 0
 258 00d6 684B     		ldr	r3, .L28+40
 259 00d8 1422     		movs	r2, #20
 260 00da 1A81     		strh	r2, [r3, #8]
 235:BLEApplications.c ****     		RGBNotificationCCCDhandle.value.len = CCCD_DATA_LEN;
 261              		.loc 1 235 0
 262 00dc 664B     		ldr	r3, .L28+40
 263 00de 654A     		ldr	r2, .L28+36
 264 00e0 1A60     		str	r2, [r3]
 236:BLEApplications.c ****     		
 265              		.loc 1 236 0
 266 00e2 654B     		ldr	r3, .L28+40
 267 00e4 0222     		movs	r2, #2
 268 00e6 9A80     		strh	r2, [r3, #4]
 239:BLEApplications.c **** 			
 269              		.loc 1 239 0
 270 00e8 5C4A     		ldr	r2, .L28+12
 271 00ea 6348     		ldr	r0, .L28+40
 272 00ec 4023     		movs	r3, #64
 273 00ee 0021     		movs	r1, #0
 274 00f0 FFF7FEFF 		bl	CyBle_GattsWriteAttributeValue
 242:BLEApplications.c ****             RGBledData[GREEN_INDEX] = ZERO;
 275              		.loc 1 242 0
 276 00f4 614B     		ldr	r3, .L28+44
 277 00f6 0022     		movs	r2, #0
 278 00f8 1A70     		strb	r2, [r3]
 243:BLEApplications.c ****             RGBledData[BLUE_INDEX] = ZERO;
 279              		.loc 1 243 0
 280 00fa 604B     		ldr	r3, .L28+44
 281 00fc 0022     		movs	r2, #0
 282 00fe 5A70     		strb	r2, [r3, #1]
 244:BLEApplications.c ****             RGBledData[INTENSITY_INDEX] = ZERO;
 283              		.loc 1 244 0
 284 0100 5E4B     		ldr	r3, .L28+44
 285 0102 0022     		movs	r2, #0
 286 0104 9A70     		strb	r2, [r3, #2]
 245:BLEApplications.c **** 			UpdateRGBled();
 287              		.loc 1 245 0
 288 0106 5D4B     		ldr	r3, .L28+44
 289 0108 0022     		movs	r2, #0
 290 010a DA70     		strb	r2, [r3, #3]
 246:BLEApplications.c **** 
 291              		.loc 1 246 0
 292 010c FFF7FEFF 		bl	UpdateRGBled
 250:BLEApplications.c **** 			
 293              		.loc 1 250 0
 294 0110 5B4B     		ldr	r3, .L28+48
 295 0112 0122     		movs	r2, #1
 296 0114 1A70     		strb	r2, [r3]
 253:BLEApplications.c **** 			
 297              		.loc 1 253 0
 298 0116 504B     		ldr	r3, .L28+8
ARM GAS  C:\Users\Jack\AppData\Local\Temp\ccYWX8Tu.s 			page 13


 299 0118 0122     		movs	r2, #1
 300 011a 1A70     		strb	r2, [r3]
 255:BLEApplications.c ****             
 301              		.loc 1 255 0
 302 011c 93E0     		b	.L16
 303              	.L14:
 259:BLEApplications.c ****             
 304              		.loc 1 259 0
 305 011e 3B68     		ldr	r3, [r7]
 306 0120 FB60     		str	r3, [r7, #12]
 263:BLEApplications.c **** 			{
 307              		.loc 1 263 0
 308 0122 FB68     		ldr	r3, [r7, #12]
 309 0124 9B89     		ldrh	r3, [r3, #12]
 310 0126 0F2B     		cmp	r3, #15
 311 0128 26D1     		bne	.L18
 266:BLEApplications.c ****                 {
 312              		.loc 1 266 0
 313 012a FB68     		ldr	r3, [r7, #12]
 314 012c 5B68     		ldr	r3, [r3, #4]
 315 012e 1B78     		ldrb	r3, [r3]
 316 0130 012B     		cmp	r3, #1
 317 0132 03D1     		bne	.L19
 268:BLEApplications.c ****                 }
 318              		.loc 1 268 0
 319 0134 4B4B     		ldr	r3, .L28+20
 320 0136 0122     		movs	r2, #1
 321 0138 1A70     		strb	r2, [r3]
 322 013a 07E0     		b	.L20
 323              	.L19:
 270:BLEApplications.c ****                 {
 324              		.loc 1 270 0
 325 013c FB68     		ldr	r3, [r7, #12]
 326 013e 5B68     		ldr	r3, [r3, #4]
 327 0140 1B78     		ldrb	r3, [r3]
 328 0142 002B     		cmp	r3, #0
 329 0144 02D1     		bne	.L20
 272:BLEApplications.c ****                 }
 330              		.loc 1 272 0
 331 0146 474B     		ldr	r3, .L28+20
 332 0148 0022     		movs	r2, #0
 333 014a 1A70     		strb	r2, [r3]
 334              	.L20:
 276:BLEApplications.c ****         		CapSenseCCCDvalue[1] = 0x00;
 335              		.loc 1 276 0
 336 014c 454B     		ldr	r3, .L28+20
 337 014e 1A78     		ldrb	r2, [r3]
 338 0150 464B     		ldr	r3, .L28+28
 339 0152 1A70     		strb	r2, [r3]
 277:BLEApplications.c ****         		
 340              		.loc 1 277 0
 341 0154 454B     		ldr	r3, .L28+28
 342 0156 0022     		movs	r2, #0
 343 0158 5A70     		strb	r2, [r3, #1]
 280:BLEApplications.c ****         		CapSenseNotificationCCCDhandle.value.val = CapSenseCCCDvalue;
 344              		.loc 1 280 0
 345 015a 454B     		ldr	r3, .L28+32
ARM GAS  C:\Users\Jack\AppData\Local\Temp\ccYWX8Tu.s 			page 14


 346 015c 0F22     		movs	r2, #15
 347 015e 1A81     		strh	r2, [r3, #8]
 281:BLEApplications.c ****         		CapSenseNotificationCCCDhandle.value.len = CCCD_DATA_LEN;
 348              		.loc 1 281 0
 349 0160 434B     		ldr	r3, .L28+32
 350 0162 424A     		ldr	r2, .L28+28
 351 0164 1A60     		str	r2, [r3]
 282:BLEApplications.c ****         		
 352              		.loc 1 282 0
 353 0166 424B     		ldr	r3, .L28+32
 354 0168 0222     		movs	r2, #2
 355 016a 9A80     		strh	r2, [r3, #4]
 285:BLEApplications.c ****             }
 356              		.loc 1 285 0
 357 016c 3B4A     		ldr	r2, .L28+12
 358 016e 4048     		ldr	r0, .L28+32
 359 0170 4023     		movs	r3, #64
 360 0172 0021     		movs	r1, #0
 361 0174 FFF7FEFF 		bl	CyBle_GattsWriteAttributeValue
 362              	.L18:
 288:BLEApplications.c ****             {
 363              		.loc 1 288 0
 364 0178 FB68     		ldr	r3, [r7, #12]
 365 017a 9B89     		ldrh	r3, [r3, #12]
 366 017c 142B     		cmp	r3, #20
 367 017e 2BD1     		bne	.L21
 291:BLEApplications.c ****                 {
 368              		.loc 1 291 0
 369 0180 FB68     		ldr	r3, [r7, #12]
 370 0182 5B68     		ldr	r3, [r3, #4]
 371 0184 1B78     		ldrb	r3, [r3]
 372 0186 012B     		cmp	r3, #1
 373 0188 03D1     		bne	.L22
 293:BLEApplications.c ****                 }
 374              		.loc 1 293 0
 375 018a 374B     		ldr	r3, .L28+24
 376 018c 0122     		movs	r2, #1
 377 018e 1A70     		strb	r2, [r3]
 378 0190 07E0     		b	.L23
 379              	.L22:
 295:BLEApplications.c ****                 {
 380              		.loc 1 295 0
 381 0192 FB68     		ldr	r3, [r7, #12]
 382 0194 5B68     		ldr	r3, [r3, #4]
 383 0196 1B78     		ldrb	r3, [r3]
 384 0198 002B     		cmp	r3, #0
 385 019a 02D1     		bne	.L23
 297:BLEApplications.c ****                 }
 386              		.loc 1 297 0
 387 019c 324B     		ldr	r3, .L28+24
 388 019e 0022     		movs	r2, #0
 389 01a0 1A70     		strb	r2, [r3]
 390              	.L23:
 301:BLEApplications.c ****         		RGBCCCDvalue[1] = 0x00;
 391              		.loc 1 301 0
 392 01a2 314B     		ldr	r3, .L28+24
 393 01a4 1A78     		ldrb	r2, [r3]
ARM GAS  C:\Users\Jack\AppData\Local\Temp\ccYWX8Tu.s 			page 15


 394 01a6 334B     		ldr	r3, .L28+36
 395 01a8 1A70     		strb	r2, [r3]
 302:BLEApplications.c ****         		
 396              		.loc 1 302 0
 397 01aa 324B     		ldr	r3, .L28+36
 398 01ac 0022     		movs	r2, #0
 399 01ae 5A70     		strb	r2, [r3, #1]
 305:BLEApplications.c ****         		RGBNotificationCCCDhandle.value.val = RGBCCCDvalue;
 400              		.loc 1 305 0
 401 01b0 314B     		ldr	r3, .L28+40
 402 01b2 1422     		movs	r2, #20
 403 01b4 1A81     		strh	r2, [r3, #8]
 306:BLEApplications.c ****         		RGBNotificationCCCDhandle.value.len = CCCD_DATA_LEN;
 404              		.loc 1 306 0
 405 01b6 304B     		ldr	r3, .L28+40
 406 01b8 2E4A     		ldr	r2, .L28+36
 407 01ba 1A60     		str	r2, [r3]
 307:BLEApplications.c ****         		
 408              		.loc 1 307 0
 409 01bc 2E4B     		ldr	r3, .L28+40
 410 01be 0222     		movs	r2, #2
 411 01c0 9A80     		strh	r2, [r3, #4]
 310:BLEApplications.c **** 				
 412              		.loc 1 310 0
 413 01c2 264A     		ldr	r2, .L28+12
 414 01c4 2C48     		ldr	r0, .L28+40
 415 01c6 4023     		movs	r3, #64
 416 01c8 0021     		movs	r1, #0
 417 01ca FFF7FEFF 		bl	CyBle_GattsWriteAttributeValue
 313:BLEApplications.c ****             }
 418              		.loc 1 313 0
 419 01ce 2B4B     		ldr	r3, .L28+44
 420 01d0 0421     		movs	r1, #4
 421 01d2 1800     		movs	r0, r3
 422 01d4 FFF7FEFF 		bl	SendDataOverRGBledNotification
 423              	.L21:
 317:BLEApplications.c ****             {
 424              		.loc 1 317 0
 425 01d8 FB68     		ldr	r3, [r7, #12]
 426 01da 9B89     		ldrh	r3, [r3, #12]
 427 01dc 132B     		cmp	r3, #19
 428 01de 15D1     		bne	.L24
 320:BLEApplications.c ****                 RGBledData[GREEN_INDEX] = wrReqParam->handleValPair.value.val[GREEN_INDEX];
 429              		.loc 1 320 0
 430 01e0 FB68     		ldr	r3, [r7, #12]
 431 01e2 5B68     		ldr	r3, [r3, #4]
 432 01e4 1A78     		ldrb	r2, [r3]
 433 01e6 254B     		ldr	r3, .L28+44
 434 01e8 1A70     		strb	r2, [r3]
 321:BLEApplications.c ****                 RGBledData[BLUE_INDEX] = wrReqParam->handleValPair.value.val[BLUE_INDEX];
 435              		.loc 1 321 0
 436 01ea FB68     		ldr	r3, [r7, #12]
 437 01ec 5B68     		ldr	r3, [r3, #4]
 438 01ee 5A78     		ldrb	r2, [r3, #1]
 439 01f0 224B     		ldr	r3, .L28+44
 440 01f2 5A70     		strb	r2, [r3, #1]
 322:BLEApplications.c ****                 RGBledData[INTENSITY_INDEX] = wrReqParam->handleValPair.value.val[INTENSITY_INDEX];
ARM GAS  C:\Users\Jack\AppData\Local\Temp\ccYWX8Tu.s 			page 16


 441              		.loc 1 322 0
 442 01f4 FB68     		ldr	r3, [r7, #12]
 443 01f6 5B68     		ldr	r3, [r3, #4]
 444 01f8 9A78     		ldrb	r2, [r3, #2]
 445 01fa 204B     		ldr	r3, .L28+44
 446 01fc 9A70     		strb	r2, [r3, #2]
 323:BLEApplications.c ****                 
 447              		.loc 1 323 0
 448 01fe FB68     		ldr	r3, [r7, #12]
 449 0200 5B68     		ldr	r3, [r3, #4]
 450 0202 DA78     		ldrb	r2, [r3, #3]
 451 0204 1D4B     		ldr	r3, .L28+44
 452 0206 DA70     		strb	r2, [r3, #3]
 326:BLEApplications.c ****             }
 453              		.loc 1 326 0
 454 0208 FFF7FEFF 		bl	UpdateRGBled
 455              	.L24:
 330:BLEApplications.c **** 			
 456              		.loc 1 330 0
 457 020c 134B     		ldr	r3, .L28+12
 458 020e 1A78     		ldrb	r2, [r3]
 459 0210 5B78     		ldrb	r3, [r3, #1]
 460 0212 1B02     		lsls	r3, r3, #8
 461 0214 1A43     		orrs	r2, r3
 462 0216 0023     		movs	r3, #0
 463 0218 1204     		lsls	r2, r2, #16
 464 021a 120C     		lsrs	r2, r2, #16
 465 021c 1B0C     		lsrs	r3, r3, #16
 466 021e 1B04     		lsls	r3, r3, #16
 467 0220 1343     		orrs	r3, r2
 468 0222 1800     		movs	r0, r3
 469 0224 FFF7FEFF 		bl	CyBle_GattsWriteRsp
 332:BLEApplications.c **** 			
 470              		.loc 1 332 0
 471 0228 0DE0     		b	.L16
 472              	.L15:
 336:BLEApplications.c ****             break;
 473              		.loc 1 336 0
 474 022a 154B     		ldr	r3, .L28+48
 475 022c 0022     		movs	r2, #0
 476 022e 1A70     		strb	r2, [r3]
 337:BLEApplications.c **** 			
 477              		.loc 1 337 0
 478 0230 09E0     		b	.L16
 479              	.L8:
 345:BLEApplications.c ****             break;
 480              		.loc 1 345 0
 481 0232 3B68     		ldr	r3, [r7]
 482 0234 1A78     		ldrb	r2, [r3]
 483 0236 134B     		ldr	r3, .L28+52
 484 0238 1A70     		strb	r2, [r3]
 346:BLEApplications.c **** 			
 485              		.loc 1 346 0
 486 023a 04E0     		b	.L16
 487              	.L25:
 175:BLEApplications.c **** 
 488              		.loc 1 175 0
ARM GAS  C:\Users\Jack\AppData\Local\Temp\ccYWX8Tu.s 			page 17


 489 023c C046     		nop
 490 023e 02E0     		b	.L16
 491              	.L26:
 156:BLEApplications.c ****         
 492              		.loc 1 156 0
 493 0240 C046     		nop
 494 0242 00E0     		b	.L16
 495              	.L27:
 171:BLEApplications.c **** 			
 496              		.loc 1 171 0
 497 0244 C046     		nop
 498              	.L16:
 351:BLEApplications.c ****     }   	/* switch(event) */
 352:BLEApplications.c **** }
 499              		.loc 1 352 0
 500 0246 C046     		nop
 501 0248 BD46     		mov	sp, r7
 502 024a 04B0     		add	sp, sp, #16
 503              		@ sp needed
 504 024c 80BD     		pop	{r7, pc}
 505              	.L29:
 506 024e C046     		.align	2
 507              	.L28:
 508 0250 00000000 		.word	restartAdvertisement
 509 0254 00000000 		.word	cyBle_state
 510 0258 00000000 		.word	shut_down_led
 511 025c 00000000 		.word	connectionHandle
 512 0260 00000000 		.word	deviceConnected
 513 0264 00000000 		.word	sendCapSenseSliderNotifications
 514 0268 00000000 		.word	rgbledNotifications
 515 026c 00000000 		.word	CapSenseCCCDvalue
 516 0270 00000000 		.word	CapSenseNotificationCCCDhandle
 517 0274 00000000 		.word	RGBCCCDvalue
 518 0278 00000000 		.word	RGBNotificationCCCDhandle
 519 027c 00000000 		.word	RGBledData
 520 0280 00000000 		.word	isConnectionUpdateRequested
 521 0284 00000000 		.word	busyStatus
 522              		.cfi_endproc
 523              	.LFE35:
 524              		.size	CustomEventHandler, .-CustomEventHandler
 525              		.section	.text.SendDataOverCapSenseNotification,"ax",%progbits
 526              		.align	2
 527              		.global	SendDataOverCapSenseNotification
 528              		.code	16
 529              		.thumb_func
 530              		.type	SendDataOverCapSenseNotification, %function
 531              	SendDataOverCapSenseNotification:
 532              	.LFB36:
 353:BLEApplications.c **** 
 354:BLEApplications.c **** /*******************************************************************************
 355:BLEApplications.c **** * Function Name: SendDataOverCapSenseNotification
 356:BLEApplications.c **** ********************************************************************************
 357:BLEApplications.c **** * Summary:
 358:BLEApplications.c **** *        Send CapSense Slider data as BLE Notifications. This function updates
 359:BLEApplications.c **** * the notification handle with data and triggers the BLE component to send 
 360:BLEApplications.c **** * notification
 361:BLEApplications.c **** *
ARM GAS  C:\Users\Jack\AppData\Local\Temp\ccYWX8Tu.s 			page 18


 362:BLEApplications.c **** * Parameters:
 363:BLEApplications.c **** *  uint8 CapSenseSliderData:	CapSense slider value	
 364:BLEApplications.c **** *
 365:BLEApplications.c **** * Return:
 366:BLEApplications.c **** *  void
 367:BLEApplications.c **** *
 368:BLEApplications.c **** *******************************************************************************/
 369:BLEApplications.c **** void SendDataOverCapSenseNotification(uint8 CapSenseSliderData)
 370:BLEApplications.c **** {
 533              		.loc 1 370 0
 534              		.cfi_startproc
 535              		@ args = 0, pretend = 0, frame = 24
 536              		@ frame_needed = 1, uses_anonymous_args = 0
 537 0000 80B5     		push	{r7, lr}
 538              		.cfi_def_cfa_offset 8
 539              		.cfi_offset 7, -8
 540              		.cfi_offset 14, -4
 541 0002 86B0     		sub	sp, sp, #24
 542              		.cfi_def_cfa_offset 32
 543 0004 00AF     		add	r7, sp, #0
 544              		.cfi_def_cfa_register 7
 545 0006 0200     		movs	r2, r0
 546 0008 FB1D     		adds	r3, r7, #7
 547 000a 1A70     		strb	r2, [r3]
 371:BLEApplications.c **** 	/* 'CapSensenotificationHandle' stores CapSense notification data parameters */
 372:BLEApplications.c **** 	CYBLE_GATTS_HANDLE_VALUE_NTF_T		CapSensenotificationHandle;	
 373:BLEApplications.c **** 	
 374:BLEApplications.c **** 	/* If stack is not busy, then send the notification */
 375:BLEApplications.c **** 	if(busyStatus == CYBLE_STACK_STATE_FREE)
 548              		.loc 1 375 0
 549 000c 114B     		ldr	r3, .L33
 550 000e 1B78     		ldrb	r3, [r3]
 551 0010 002B     		cmp	r3, #0
 552 0012 1BD1     		bne	.L32
 376:BLEApplications.c **** 	{
 377:BLEApplications.c **** 		/* Update notification handle with CapSense slider data*/
 378:BLEApplications.c **** 		CapSensenotificationHandle.attrHandle = CYBLE_CAPSENSE_CAPSENSE_SLIDER_CHAR_HANDLE;				
 553              		.loc 1 378 0
 554 0014 0C23     		movs	r3, #12
 555 0016 FB18     		adds	r3, r7, r3
 556 0018 0E22     		movs	r2, #14
 557 001a 1A81     		strh	r2, [r3, #8]
 379:BLEApplications.c **** 		CapSensenotificationHandle.value.val = &CapSenseSliderData;
 558              		.loc 1 379 0
 559 001c 0C23     		movs	r3, #12
 560 001e FB18     		adds	r3, r7, r3
 561 0020 FA1D     		adds	r2, r7, #7
 562 0022 1A60     		str	r2, [r3]
 380:BLEApplications.c **** 		CapSensenotificationHandle.value.len = CAPSENSE_SLIDER_NTF_DATA_LEN;
 563              		.loc 1 380 0
 564 0024 0C23     		movs	r3, #12
 565 0026 FB18     		adds	r3, r7, r3
 566 0028 0122     		movs	r2, #1
 567 002a 9A80     		strh	r2, [r3, #4]
 381:BLEApplications.c **** 		
 382:BLEApplications.c **** 		/* Send the updated handle as part of attribute for notifications */
 383:BLEApplications.c **** 		CyBle_GattsNotification(connectionHandle,&CapSensenotificationHandle);
ARM GAS  C:\Users\Jack\AppData\Local\Temp\ccYWX8Tu.s 			page 19


 568              		.loc 1 383 0
 569 002c 0C23     		movs	r3, #12
 570 002e F918     		adds	r1, r7, r3
 571 0030 094B     		ldr	r3, .L33+4
 572 0032 1A78     		ldrb	r2, [r3]
 573 0034 5B78     		ldrb	r3, [r3, #1]
 574 0036 1B02     		lsls	r3, r3, #8
 575 0038 1A43     		orrs	r2, r3
 576 003a 0023     		movs	r3, #0
 577 003c 1204     		lsls	r2, r2, #16
 578 003e 120C     		lsrs	r2, r2, #16
 579 0040 1B0C     		lsrs	r3, r3, #16
 580 0042 1B04     		lsls	r3, r3, #16
 581 0044 1343     		orrs	r3, r2
 582 0046 1800     		movs	r0, r3
 583 0048 FFF7FEFF 		bl	CyBle_GattsNotification
 584              	.L32:
 384:BLEApplications.c **** 	}
 385:BLEApplications.c **** }
 585              		.loc 1 385 0
 586 004c C046     		nop
 587 004e BD46     		mov	sp, r7
 588 0050 06B0     		add	sp, sp, #24
 589              		@ sp needed
 590 0052 80BD     		pop	{r7, pc}
 591              	.L34:
 592              		.align	2
 593              	.L33:
 594 0054 00000000 		.word	busyStatus
 595 0058 00000000 		.word	connectionHandle
 596              		.cfi_endproc
 597              	.LFE36:
 598              		.size	SendDataOverCapSenseNotification, .-SendDataOverCapSenseNotification
 599              		.section	.text.SendDataOverRGBledNotification,"ax",%progbits
 600              		.align	2
 601              		.global	SendDataOverRGBledNotification
 602              		.code	16
 603              		.thumb_func
 604              		.type	SendDataOverRGBledNotification, %function
 605              	SendDataOverRGBledNotification:
 606              	.LFB37:
 386:BLEApplications.c **** 
 387:BLEApplications.c **** /*******************************************************************************
 388:BLEApplications.c **** * Function Name: SendDataOverRGBledNotification
 389:BLEApplications.c **** ********************************************************************************
 390:BLEApplications.c **** * Summary:
 391:BLEApplications.c **** *        Send RGB LED data as BLE Notifications. This function updates
 392:BLEApplications.c **** * the notification handle with data and triggers the BLE component to send 
 393:BLEApplications.c **** * notification
 394:BLEApplications.c **** *
 395:BLEApplications.c **** * Parameters:
 396:BLEApplications.c **** *  uint8 *rgbLedData:	pointer to an array containing RGB color and Intensity values
 397:BLEApplications.c **** *  uint8 len: length of the array
 398:BLEApplications.c **** *
 399:BLEApplications.c **** * Return:
 400:BLEApplications.c **** *  void
 401:BLEApplications.c **** *
ARM GAS  C:\Users\Jack\AppData\Local\Temp\ccYWX8Tu.s 			page 20


 402:BLEApplications.c **** *******************************************************************************/
 403:BLEApplications.c **** void SendDataOverRGBledNotification(uint8 *rgbLedData, uint8 len)
 404:BLEApplications.c **** {
 607              		.loc 1 404 0
 608              		.cfi_startproc
 609              		@ args = 0, pretend = 0, frame = 24
 610              		@ frame_needed = 1, uses_anonymous_args = 0
 611 0000 80B5     		push	{r7, lr}
 612              		.cfi_def_cfa_offset 8
 613              		.cfi_offset 7, -8
 614              		.cfi_offset 14, -4
 615 0002 86B0     		sub	sp, sp, #24
 616              		.cfi_def_cfa_offset 32
 617 0004 00AF     		add	r7, sp, #0
 618              		.cfi_def_cfa_register 7
 619 0006 7860     		str	r0, [r7, #4]
 620 0008 0A00     		movs	r2, r1
 621 000a FB1C     		adds	r3, r7, #3
 622 000c 1A70     		strb	r2, [r3]
 405:BLEApplications.c **** 	/* 'rgbLednotificationHandle' stores RGB LED notification data parameters */
 406:BLEApplications.c **** 	CYBLE_GATTS_HANDLE_VALUE_NTF_T 	rgbLednotificationHandle;
 407:BLEApplications.c **** 	
 408:BLEApplications.c **** 	/* If stack is not busy, then send the notification */
 409:BLEApplications.c **** 	if(busyStatus == CYBLE_STACK_STATE_FREE)
 623              		.loc 1 409 0
 624 000e 134B     		ldr	r3, .L38
 625 0010 1B78     		ldrb	r3, [r3]
 626 0012 002B     		cmp	r3, #0
 627 0014 1DD1     		bne	.L37
 410:BLEApplications.c **** 	{
 411:BLEApplications.c **** 		/* Update notification handle with CapSense slider data*/
 412:BLEApplications.c **** 		rgbLednotificationHandle.attrHandle = CYBLE_RGB_LED_RGB_LED_CONTROL_CHAR_HANDLE;				
 628              		.loc 1 412 0
 629 0016 0C23     		movs	r3, #12
 630 0018 FB18     		adds	r3, r7, r3
 631 001a 1322     		movs	r2, #19
 632 001c 1A81     		strh	r2, [r3, #8]
 413:BLEApplications.c **** 		rgbLednotificationHandle.value.val = rgbLedData;
 633              		.loc 1 413 0
 634 001e 0C23     		movs	r3, #12
 635 0020 FB18     		adds	r3, r7, r3
 636 0022 7A68     		ldr	r2, [r7, #4]
 637 0024 1A60     		str	r2, [r3]
 414:BLEApplications.c **** 		rgbLednotificationHandle.value.len = len;
 638              		.loc 1 414 0
 639 0026 FB1C     		adds	r3, r7, #3
 640 0028 1B78     		ldrb	r3, [r3]
 641 002a 9AB2     		uxth	r2, r3
 642 002c 0C23     		movs	r3, #12
 643 002e FB18     		adds	r3, r7, r3
 644 0030 9A80     		strh	r2, [r3, #4]
 415:BLEApplications.c **** 		
 416:BLEApplications.c **** 		/* Send the updated handle as part of attribute for notifications */
 417:BLEApplications.c **** 		CyBle_GattsNotification(connectionHandle,&rgbLednotificationHandle);
 645              		.loc 1 417 0
 646 0032 0C23     		movs	r3, #12
 647 0034 F918     		adds	r1, r7, r3
ARM GAS  C:\Users\Jack\AppData\Local\Temp\ccYWX8Tu.s 			page 21


 648 0036 0A4B     		ldr	r3, .L38+4
 649 0038 1A78     		ldrb	r2, [r3]
 650 003a 5B78     		ldrb	r3, [r3, #1]
 651 003c 1B02     		lsls	r3, r3, #8
 652 003e 1A43     		orrs	r2, r3
 653 0040 0023     		movs	r3, #0
 654 0042 1204     		lsls	r2, r2, #16
 655 0044 120C     		lsrs	r2, r2, #16
 656 0046 1B0C     		lsrs	r3, r3, #16
 657 0048 1B04     		lsls	r3, r3, #16
 658 004a 1343     		orrs	r3, r2
 659 004c 1800     		movs	r0, r3
 660 004e FFF7FEFF 		bl	CyBle_GattsNotification
 661              	.L37:
 418:BLEApplications.c **** 	}
 419:BLEApplications.c **** }
 662              		.loc 1 419 0
 663 0052 C046     		nop
 664 0054 BD46     		mov	sp, r7
 665 0056 06B0     		add	sp, sp, #24
 666              		@ sp needed
 667 0058 80BD     		pop	{r7, pc}
 668              	.L39:
 669 005a C046     		.align	2
 670              	.L38:
 671 005c 00000000 		.word	busyStatus
 672 0060 00000000 		.word	connectionHandle
 673              		.cfi_endproc
 674              	.LFE37:
 675              		.size	SendDataOverRGBledNotification, .-SendDataOverRGBledNotification
 676              		.section	.text.UpdateConnectionParam,"ax",%progbits
 677              		.align	2
 678              		.global	UpdateConnectionParam
 679              		.code	16
 680              		.thumb_func
 681              		.type	UpdateConnectionParam, %function
 682              	UpdateConnectionParam:
 683              	.LFB38:
 420:BLEApplications.c **** 
 421:BLEApplications.c **** /*******************************************************************************
 422:BLEApplications.c **** * Function Name: UpdateConnectionParam
 423:BLEApplications.c **** ********************************************************************************
 424:BLEApplications.c **** * Summary:
 425:BLEApplications.c **** *        Send the Connection Update Request to Client device after connection 
 426:BLEApplications.c **** * and modify the connection interval for low power operation.
 427:BLEApplications.c **** *
 428:BLEApplications.c **** * Parameters:
 429:BLEApplications.c **** *	void
 430:BLEApplications.c **** *
 431:BLEApplications.c **** * Return:
 432:BLEApplications.c **** *  void
 433:BLEApplications.c **** *
 434:BLEApplications.c **** *******************************************************************************/
 435:BLEApplications.c **** void UpdateConnectionParam(void)
 436:BLEApplications.c **** {
 684              		.loc 1 436 0
 685              		.cfi_startproc
ARM GAS  C:\Users\Jack\AppData\Local\Temp\ccYWX8Tu.s 			page 22


 686              		@ args = 0, pretend = 0, frame = 0
 687              		@ frame_needed = 1, uses_anonymous_args = 0
 688 0000 80B5     		push	{r7, lr}
 689              		.cfi_def_cfa_offset 8
 690              		.cfi_offset 7, -8
 691              		.cfi_offset 14, -4
 692 0002 00AF     		add	r7, sp, #0
 693              		.cfi_def_cfa_register 7
 437:BLEApplications.c **** 	/* If device is connected and Update connection parameter not updated yet,
 438:BLEApplications.c **** 	* then send the Connection Parameter Update request to Client. */
 439:BLEApplications.c ****     if(deviceConnected && isConnectionUpdateRequested)
 694              		.loc 1 439 0
 695 0004 0A4B     		ldr	r3, .L43
 696 0006 1B78     		ldrb	r3, [r3]
 697 0008 002B     		cmp	r3, #0
 698 000a 0DD0     		beq	.L42
 699              		.loc 1 439 0 is_stmt 0 discriminator 1
 700 000c 094B     		ldr	r3, .L43+4
 701 000e 1B78     		ldrb	r3, [r3]
 702 0010 002B     		cmp	r3, #0
 703 0012 09D0     		beq	.L42
 440:BLEApplications.c **** 	{
 441:BLEApplications.c **** 		/* Reset the flag to indicate that connection Update request has been sent */
 442:BLEApplications.c **** 		isConnectionUpdateRequested = FALSE;
 704              		.loc 1 442 0 is_stmt 1
 705 0014 074B     		ldr	r3, .L43+4
 706 0016 0022     		movs	r2, #0
 707 0018 1A70     		strb	r2, [r3]
 443:BLEApplications.c **** 		
 444:BLEApplications.c **** 		/* Send Connection Update request with set Parameter */
 445:BLEApplications.c **** 		CyBle_L2capLeConnectionParamUpdateRequest(connectionHandle.bdHandle, &ConnectionParam);
 708              		.loc 1 445 0
 709 001a 074B     		ldr	r3, .L43+8
 710 001c 1B78     		ldrb	r3, [r3]
 711 001e 074A     		ldr	r2, .L43+12
 712 0020 1100     		movs	r1, r2
 713 0022 1800     		movs	r0, r3
 714 0024 FFF7FEFF 		bl	CyBle_L2capLeConnectionParamUpdateRequest
 715              	.L42:
 446:BLEApplications.c **** 	}
 447:BLEApplications.c **** }
 716              		.loc 1 447 0
 717 0028 C046     		nop
 718 002a BD46     		mov	sp, r7
 719              		@ sp needed
 720 002c 80BD     		pop	{r7, pc}
 721              	.L44:
 722 002e C046     		.align	2
 723              	.L43:
 724 0030 00000000 		.word	deviceConnected
 725 0034 00000000 		.word	isConnectionUpdateRequested
 726 0038 00000000 		.word	connectionHandle
 727 003c 04000000 		.word	ConnectionParam
 728              		.cfi_endproc
 729              	.LFE38:
 730              		.size	UpdateConnectionParam, .-UpdateConnectionParam
 731              		.global	__aeabi_idiv
ARM GAS  C:\Users\Jack\AppData\Local\Temp\ccYWX8Tu.s 			page 23


 732              		.section	.text.UpdateRGBled,"ax",%progbits
 733              		.align	2
 734              		.global	UpdateRGBled
 735              		.code	16
 736              		.thumb_func
 737              		.type	UpdateRGBled, %function
 738              	UpdateRGBled:
 739              	.LFB39:
 448:BLEApplications.c **** 
 449:BLEApplications.c **** /*******************************************************************************
 450:BLEApplications.c **** * Function Name: UpdateRGBled
 451:BLEApplications.c **** ********************************************************************************
 452:BLEApplications.c **** * Summary:
 453:BLEApplications.c **** *        Receive the new RGB data and modify PrISM parameters. Also, update the
 454:BLEApplications.c **** * read characteristic handle so that the next read from the BLE central device
 455:BLEApplications.c **** * gives present RGB color and intensity data.
 456:BLEApplications.c **** *
 457:BLEApplications.c **** * Parameters:
 458:BLEApplications.c **** *  void
 459:BLEApplications.c **** *
 460:BLEApplications.c **** * Return:
 461:BLEApplications.c **** *  void
 462:BLEApplications.c **** *
 463:BLEApplications.c **** *******************************************************************************/
 464:BLEApplications.c **** void UpdateRGBled(void)
 465:BLEApplications.c **** {
 740              		.loc 1 465 0
 741              		.cfi_startproc
 742              		@ args = 0, pretend = 0, frame = 8
 743              		@ frame_needed = 1, uses_anonymous_args = 0
 744 0000 80B5     		push	{r7, lr}
 745              		.cfi_def_cfa_offset 8
 746              		.cfi_offset 7, -8
 747              		.cfi_offset 14, -4
 748 0002 82B0     		sub	sp, sp, #8
 749              		.cfi_def_cfa_offset 16
 750 0004 00AF     		add	r7, sp, #0
 751              		.cfi_def_cfa_register 7
 466:BLEApplications.c **** 	/* Local variables to calculate the color components from RGB received data*/
 467:BLEApplications.c **** 	uint8 debug_red;
 468:BLEApplications.c **** 	uint8 debug_green;
 469:BLEApplications.c **** 	uint8 debug_blue;
 470:BLEApplications.c **** 	uint8 intensity_divide_value = RGBledData[INTENSITY_INDEX];
 752              		.loc 1 470 0
 753 0006 FB1D     		adds	r3, r7, #7
 754 0008 464A     		ldr	r2, .L49
 755 000a D278     		ldrb	r2, [r2, #3]
 756 000c 1A70     		strb	r2, [r3]
 471:BLEApplications.c **** 	
 472:BLEApplications.c **** 	/* Calculate the intensity of the Red, Green and Blue components from the
 473:BLEApplications.c **** 	* received 4-byte data */
 474:BLEApplications.c **** 	debug_red = (uint8)(((uint16)RGBledData[RED_INDEX]*intensity_divide_value)/255);
 757              		.loc 1 474 0
 758 000e 454B     		ldr	r3, .L49
 759 0010 1B78     		ldrb	r3, [r3]
 760 0012 1A00     		movs	r2, r3
 761 0014 FB1D     		adds	r3, r7, #7
ARM GAS  C:\Users\Jack\AppData\Local\Temp\ccYWX8Tu.s 			page 24


 762 0016 1B78     		ldrb	r3, [r3]
 763 0018 5343     		muls	r3, r2
 764 001a FF21     		movs	r1, #255
 765 001c 1800     		movs	r0, r3
 766 001e FFF7FEFF 		bl	__aeabi_idiv
 767 0022 0300     		movs	r3, r0
 768 0024 1A00     		movs	r2, r3
 769 0026 BB1D     		adds	r3, r7, #6
 770 0028 1A70     		strb	r2, [r3]
 475:BLEApplications.c **** 	debug_green = (uint8)(((uint16)RGBledData[GREEN_INDEX]*intensity_divide_value)/255);
 771              		.loc 1 475 0
 772 002a 3E4B     		ldr	r3, .L49
 773 002c 5B78     		ldrb	r3, [r3, #1]
 774 002e 1A00     		movs	r2, r3
 775 0030 FB1D     		adds	r3, r7, #7
 776 0032 1B78     		ldrb	r3, [r3]
 777 0034 5343     		muls	r3, r2
 778 0036 FF21     		movs	r1, #255
 779 0038 1800     		movs	r0, r3
 780 003a FFF7FEFF 		bl	__aeabi_idiv
 781 003e 0300     		movs	r3, r0
 782 0040 1A00     		movs	r2, r3
 783 0042 7B1D     		adds	r3, r7, #5
 784 0044 1A70     		strb	r2, [r3]
 476:BLEApplications.c **** 	debug_blue = (uint8)(((uint16)RGBledData[BLUE_INDEX]*intensity_divide_value)/255);
 785              		.loc 1 476 0
 786 0046 374B     		ldr	r3, .L49
 787 0048 9B78     		ldrb	r3, [r3, #2]
 788 004a 1A00     		movs	r2, r3
 789 004c FB1D     		adds	r3, r7, #7
 790 004e 1B78     		ldrb	r3, [r3]
 791 0050 5343     		muls	r3, r2
 792 0052 FF21     		movs	r1, #255
 793 0054 1800     		movs	r0, r3
 794 0056 FFF7FEFF 		bl	__aeabi_idiv
 795 005a 0300     		movs	r3, r0
 796 005c 1A00     		movs	r2, r3
 797 005e 3B1D     		adds	r3, r7, #4
 798 0060 1A70     		strb	r2, [r3]
 477:BLEApplications.c **** 	
 478:BLEApplications.c **** 	/*If the Intensity value sent by client is below a set threshold, assume no intensity
 479:BLEApplications.c **** 	* and switch off the RGB colors on LED. Also, set the appropriate flag to allow the system 
 480:BLEApplications.c **** 	* to go to Deep Sleep */
 481:BLEApplications.c **** 	if(RGBledData[INTENSITY_INDEX] < LED_NO_COLOR_THRESHOLD)
 799              		.loc 1 481 0
 800 0062 304B     		ldr	r3, .L49
 801 0064 DB78     		ldrb	r3, [r3, #3]
 802 0066 032B     		cmp	r3, #3
 803 0068 0CD8     		bhi	.L46
 482:BLEApplications.c **** 	{
 483:BLEApplications.c **** 		/* Set the flag to allow the system to go to Deep Sleep */
 484:BLEApplications.c **** 		shut_down_led = TRUE;
 804              		.loc 1 484 0
 805 006a 2F4B     		ldr	r3, .L49+4
 806 006c 0122     		movs	r2, #1
 807 006e 1A70     		strb	r2, [r3]
 485:BLEApplications.c **** 		
ARM GAS  C:\Users\Jack\AppData\Local\Temp\ccYWX8Tu.s 			page 25


 486:BLEApplications.c **** 		/* Set the RGB LED pin drive mode to HiZ to prevent leakage of current */
 487:BLEApplications.c **** 		RED_SetDriveMode(RED_DM_ALG_HIZ);
 808              		.loc 1 487 0
 809 0070 0020     		movs	r0, #0
 810 0072 FFF7FEFF 		bl	RED_SetDriveMode
 488:BLEApplications.c **** 		GREEN_SetDriveMode(GREEN_DM_ALG_HIZ);
 811              		.loc 1 488 0
 812 0076 0020     		movs	r0, #0
 813 0078 FFF7FEFF 		bl	GREEN_SetDriveMode
 489:BLEApplications.c **** 		BLUE_SetDriveMode(BLUE_DM_ALG_HIZ);
 814              		.loc 1 489 0
 815 007c 0020     		movs	r0, #0
 816 007e FFF7FEFF 		bl	BLUE_SetDriveMode
 817 0082 3CE0     		b	.L47
 818              	.L46:
 490:BLEApplications.c **** 	}
 491:BLEApplications.c **** 	else
 492:BLEApplications.c **** 	{
 493:BLEApplications.c **** 		/* If the individual color value of Red, Green and Blue component is less than
 494:BLEApplications.c **** 		*  set threshold, then assume no color and shut down the LEDs. Also,set the 
 495:BLEApplications.c **** 		* appropriate flag to allow system to go to Deep Sleep */
 496:BLEApplications.c **** 		if((debug_red < LED_NO_COLOR_THRESHOLD) && \
 819              		.loc 1 496 0
 820 0084 BB1D     		adds	r3, r7, #6
 821 0086 1B78     		ldrb	r3, [r3]
 822 0088 032B     		cmp	r3, #3
 823 008a 14D8     		bhi	.L48
 824              		.loc 1 496 0 is_stmt 0 discriminator 1
 825 008c 7B1D     		adds	r3, r7, #5
 826 008e 1B78     		ldrb	r3, [r3]
 827 0090 032B     		cmp	r3, #3
 828 0092 10D8     		bhi	.L48
 497:BLEApplications.c **** 			(debug_green < LED_NO_COLOR_THRESHOLD) && \
 829              		.loc 1 497 0 is_stmt 1
 830 0094 3B1D     		adds	r3, r7, #4
 831 0096 1B78     		ldrb	r3, [r3]
 832 0098 032B     		cmp	r3, #3
 833 009a 0CD8     		bhi	.L48
 498:BLEApplications.c **** 			(debug_blue < LED_NO_COLOR_THRESHOLD))
 499:BLEApplications.c **** 		{
 500:BLEApplications.c **** 			/* Set the flag to allow the system to go to Deep Sleep */
 501:BLEApplications.c **** 			shut_down_led = TRUE;
 834              		.loc 1 501 0
 835 009c 224B     		ldr	r3, .L49+4
 836 009e 0122     		movs	r2, #1
 837 00a0 1A70     		strb	r2, [r3]
 502:BLEApplications.c **** 			
 503:BLEApplications.c **** 			/* Set the RGB LED pin drive mode to HiZ to prevent leakage of current */
 504:BLEApplications.c **** 			RED_SetDriveMode(RED_DM_ALG_HIZ);
 838              		.loc 1 504 0
 839 00a2 0020     		movs	r0, #0
 840 00a4 FFF7FEFF 		bl	RED_SetDriveMode
 505:BLEApplications.c **** 			GREEN_SetDriveMode(GREEN_DM_ALG_HIZ);
 841              		.loc 1 505 0
 842 00a8 0020     		movs	r0, #0
 843 00aa FFF7FEFF 		bl	GREEN_SetDriveMode
 506:BLEApplications.c **** 			BLUE_SetDriveMode(BLUE_DM_ALG_HIZ);
ARM GAS  C:\Users\Jack\AppData\Local\Temp\ccYWX8Tu.s 			page 26


 844              		.loc 1 506 0
 845 00ae 0020     		movs	r0, #0
 846 00b0 FFF7FEFF 		bl	BLUE_SetDriveMode
 847 00b4 23E0     		b	.L47
 848              	.L48:
 507:BLEApplications.c **** 		}
 508:BLEApplications.c **** 		else
 509:BLEApplications.c **** 		{
 510:BLEApplications.c **** 			/* If the color and intensity values received are within the acceptable 
 511:BLEApplications.c **** 			* range, then PrISM has to be enabled and written with correct density 
 512:BLEApplications.c **** 			* value to present the right color. For this, reset the shut_down_led 
 513:BLEApplications.c **** 			* flag to allow CPU to go to only Sleep, and not Deep Sleep. This is 
 514:BLEApplications.c **** 			* because CPU cannot be in Deep Sleep while PrISM is active */
 515:BLEApplications.c **** 			shut_down_led = FALSE;
 849              		.loc 1 515 0
 850 00b6 1C4B     		ldr	r3, .L49+4
 851 00b8 0022     		movs	r2, #0
 852 00ba 1A70     		strb	r2, [r3]
 516:BLEApplications.c **** 			
 517:BLEApplications.c **** 			/* Set the time for RGB LED on Period. After this time (in seconds), the 
 518:BLEApplications.c **** 			* LED will be shutdown to prevent current usage */
 519:BLEApplications.c **** 			led_timer = LED_OFF_TIME_PERIOD;
 853              		.loc 1 519 0
 854 00bc 1B4B     		ldr	r3, .L49+8
 855 00be 0222     		movs	r2, #2
 856 00c0 1A70     		strb	r2, [r3]
 520:BLEApplications.c **** 			
 521:BLEApplications.c **** 			/* Set the drive mode for LED pins to Strong mode */
 522:BLEApplications.c **** 			RED_SetDriveMode(RED_DM_STRONG);
 857              		.loc 1 522 0
 858 00c2 0620     		movs	r0, #6
 859 00c4 FFF7FEFF 		bl	RED_SetDriveMode
 523:BLEApplications.c **** 			GREEN_SetDriveMode(GREEN_DM_STRONG);
 860              		.loc 1 523 0
 861 00c8 0620     		movs	r0, #6
 862 00ca FFF7FEFF 		bl	GREEN_SetDriveMode
 524:BLEApplications.c **** 			BLUE_SetDriveMode(BLUE_DM_STRONG);
 863              		.loc 1 524 0
 864 00ce 0620     		movs	r0, #6
 865 00d0 FFF7FEFF 		bl	BLUE_SetDriveMode
 525:BLEApplications.c **** 			
 526:BLEApplications.c **** 			/* Update the density value of the PrISM module for color control*/
 527:BLEApplications.c **** 			PrISM_1_WritePulse0(RGB_LED_MAX_VAL - debug_red);
 866              		.loc 1 527 0
 867 00d4 BB1D     		adds	r3, r7, #6
 868 00d6 1B78     		ldrb	r3, [r3]
 869 00d8 DB43     		mvns	r3, r3
 870 00da DBB2     		uxtb	r3, r3
 871 00dc 1800     		movs	r0, r3
 872 00de FFF7FEFF 		bl	PrISM_1_WritePulse0
 528:BLEApplications.c **** 		    PrISM_1_WritePulse1(RGB_LED_MAX_VAL - debug_green);
 873              		.loc 1 528 0
 874 00e2 7B1D     		adds	r3, r7, #5
 875 00e4 1B78     		ldrb	r3, [r3]
 876 00e6 DB43     		mvns	r3, r3
 877 00e8 DBB2     		uxtb	r3, r3
 878 00ea 1800     		movs	r0, r3
ARM GAS  C:\Users\Jack\AppData\Local\Temp\ccYWX8Tu.s 			page 27


 879 00ec FFF7FEFF 		bl	PrISM_1_WritePulse1
 529:BLEApplications.c **** 		    PrISM_2_WritePulse0(RGB_LED_MAX_VAL - debug_blue);
 880              		.loc 1 529 0
 881 00f0 3B1D     		adds	r3, r7, #4
 882 00f2 1B78     		ldrb	r3, [r3]
 883 00f4 DB43     		mvns	r3, r3
 884 00f6 DBB2     		uxtb	r3, r3
 885 00f8 1800     		movs	r0, r3
 886 00fa FFF7FEFF 		bl	PrISM_2_WritePulse0
 887              	.L47:
 530:BLEApplications.c **** 		}
 531:BLEApplications.c **** 	}
 532:BLEApplications.c **** 	
 533:BLEApplications.c **** 	/* Update RGB control handle with new values */
 534:BLEApplications.c **** 	rgbHandle.attrHandle = CYBLE_RGB_LED_RGB_LED_CONTROL_CHAR_HANDLE;
 888              		.loc 1 534 0
 889 00fe 0C4B     		ldr	r3, .L49+12
 890 0100 1322     		movs	r2, #19
 891 0102 1A81     		strh	r2, [r3, #8]
 535:BLEApplications.c **** 	rgbHandle.value.val = RGBledData;
 892              		.loc 1 535 0
 893 0104 0A4B     		ldr	r3, .L49+12
 894 0106 074A     		ldr	r2, .L49
 895 0108 1A60     		str	r2, [r3]
 536:BLEApplications.c **** 	rgbHandle.value.len = RGB_CHAR_DATA_LEN;
 896              		.loc 1 536 0
 897 010a 094B     		ldr	r3, .L49+12
 898 010c 0422     		movs	r2, #4
 899 010e 9A80     		strh	r2, [r3, #4]
 537:BLEApplications.c **** 	
 538:BLEApplications.c **** 	/* Send updated RGB control handle as attribute for read by central device, so that
 539:BLEApplications.c **** 	* Client reads the new RGB color data */
 540:BLEApplications.c **** 	CyBle_GattsWriteAttributeValue(&rgbHandle,FALSE,&connectionHandle,FALSE);
 900              		.loc 1 540 0
 901 0110 084A     		ldr	r2, .L49+16
 902 0112 0748     		ldr	r0, .L49+12
 903 0114 0023     		movs	r3, #0
 904 0116 0021     		movs	r1, #0
 905 0118 FFF7FEFF 		bl	CyBle_GattsWriteAttributeValue
 541:BLEApplications.c **** }
 906              		.loc 1 541 0
 907 011c C046     		nop
 908 011e BD46     		mov	sp, r7
 909 0120 02B0     		add	sp, sp, #8
 910              		@ sp needed
 911 0122 80BD     		pop	{r7, pc}
 912              	.L50:
 913              		.align	2
 914              	.L49:
 915 0124 00000000 		.word	RGBledData
 916 0128 00000000 		.word	shut_down_led
 917 012c 00000000 		.word	led_timer
 918 0130 00000000 		.word	rgbHandle
 919 0134 00000000 		.word	connectionHandle
 920              		.cfi_endproc
 921              	.LFE39:
 922              		.size	UpdateRGBled, .-UpdateRGBled
ARM GAS  C:\Users\Jack\AppData\Local\Temp\ccYWX8Tu.s 			page 28


 923              		.section	.text.HandleStatusLED,"ax",%progbits
 924              		.align	2
 925              		.global	HandleStatusLED
 926              		.code	16
 927              		.thumb_func
 928              		.type	HandleStatusLED, %function
 929              	HandleStatusLED:
 930              	.LFB40:
 542:BLEApplications.c **** 
 543:BLEApplications.c **** 
 544:BLEApplications.c **** /*******************************************************************************
 545:BLEApplications.c **** * Function Name: HandleStatusLED
 546:BLEApplications.c **** ********************************************************************************
 547:BLEApplications.c **** * Summary:
 548:BLEApplications.c **** *        Handle LED status, such as blinking, ON or OFF depending on BLE state.
 549:BLEApplications.c **** *
 550:BLEApplications.c **** * Parameters:
 551:BLEApplications.c **** *  void
 552:BLEApplications.c **** *
 553:BLEApplications.c **** * Return:
 554:BLEApplications.c **** *  void
 555:BLEApplications.c **** *
 556:BLEApplications.c **** *******************************************************************************/
 557:BLEApplications.c **** void HandleStatusLED(void)
 558:BLEApplications.c **** {
 931              		.loc 1 558 0
 932              		.cfi_startproc
 933              		@ args = 0, pretend = 0, frame = 8
 934              		@ frame_needed = 1, uses_anonymous_args = 0
 935 0000 80B5     		push	{r7, lr}
 936              		.cfi_def_cfa_offset 8
 937              		.cfi_offset 7, -8
 938              		.cfi_offset 14, -4
 939 0002 82B0     		sub	sp, sp, #8
 940              		.cfi_def_cfa_offset 16
 941 0004 00AF     		add	r7, sp, #0
 942              		.cfi_def_cfa_register 7
 559:BLEApplications.c **** 	/* Local static counter to handle the periodic toggling of LED or keeping LED ON
 560:BLEApplications.c **** 	* for some time. */
 561:BLEApplications.c **** 	static uint32 led_counter = TRUE;
 562:BLEApplications.c **** 	
 563:BLEApplications.c **** 	/* Local static variable that stores the last BLE state in which firmware was */
 564:BLEApplications.c **** 	static uint8 state = 0xFF;
 565:BLEApplications.c **** 	
 566:BLEApplications.c **** 	/* Flag to indicate that the state of BLE has changed from the last known value */
 567:BLEApplications.c **** 	uint8 state_changed = FALSE;
 943              		.loc 1 567 0
 944 0006 FB1D     		adds	r3, r7, #7
 945 0008 0022     		movs	r2, #0
 946 000a 1A70     		strb	r2, [r3]
 568:BLEApplications.c **** 	
 569:BLEApplications.c **** 	if(state != CyBle_GetState())
 947              		.loc 1 569 0
 948 000c 374B     		ldr	r3, .L63
 949 000e 1A78     		ldrb	r2, [r3]
 950 0010 374B     		ldr	r3, .L63+4
 951 0012 1B78     		ldrb	r3, [r3]
ARM GAS  C:\Users\Jack\AppData\Local\Temp\ccYWX8Tu.s 			page 29


 952 0014 9A42     		cmp	r2, r3
 953 0016 09D0     		beq	.L52
 570:BLEApplications.c **** 	{
 571:BLEApplications.c **** 		/* If the present BLE state is different from the new BLE state, set the 
 572:BLEApplications.c **** 		* state_changed flag and reset the local counter */
 573:BLEApplications.c **** 		state_changed = TRUE;
 954              		.loc 1 573 0
 955 0018 FB1D     		adds	r3, r7, #7
 956 001a 0122     		movs	r2, #1
 957 001c 1A70     		strb	r2, [r3]
 574:BLEApplications.c **** 				
 575:BLEApplications.c **** 		if(CyBle_GetState() == CYBLE_STATE_ADVERTISING)
 958              		.loc 1 575 0
 959 001e 344B     		ldr	r3, .L63+4
 960 0020 1B78     		ldrb	r3, [r3]
 961 0022 032B     		cmp	r3, #3
 962 0024 02D1     		bne	.L52
 576:BLEApplications.c **** 		{
 577:BLEApplications.c **** 			led_counter = TRUE;
 963              		.loc 1 577 0
 964 0026 334B     		ldr	r3, .L63+8
 965 0028 0122     		movs	r2, #1
 966 002a 1A60     		str	r2, [r3]
 967              	.L52:
 578:BLEApplications.c **** 		}
 579:BLEApplications.c **** 	}
 580:BLEApplications.c **** 	
 581:BLEApplications.c **** 	/* Store the new BLE state into the present state variable */
 582:BLEApplications.c **** 	state = CyBle_GetState();
 968              		.loc 1 582 0
 969 002c 304B     		ldr	r3, .L63+4
 970 002e 1A78     		ldrb	r2, [r3]
 971 0030 2E4B     		ldr	r3, .L63
 972 0032 1A70     		strb	r2, [r3]
 583:BLEApplications.c **** 		
 584:BLEApplications.c **** 	switch(state)
 973              		.loc 1 584 0
 974 0034 2D4B     		ldr	r3, .L63
 975 0036 1B78     		ldrb	r3, [r3]
 976 0038 032B     		cmp	r3, #3
 977 003a 1AD0     		beq	.L54
 978 003c 042B     		cmp	r3, #4
 979 003e 3AD0     		beq	.L55
 980 0040 022B     		cmp	r3, #2
 981 0042 00D0     		beq	.L56
 585:BLEApplications.c **** 	{
 586:BLEApplications.c **** 		case CYBLE_STATE_CONNECTED:
 587:BLEApplications.c **** 			/* If the present BLE state is connected, keep the LED ON for
 588:BLEApplications.c **** 			* pre-determined time and then switch it OFF in WDT ISR */
 589:BLEApplications.c **** 			if(state_changed)
 590:BLEApplications.c **** 			{
 591:BLEApplications.c **** 				/* Reset the flag for state change */
 592:BLEApplications.c **** 				state_changed = FALSE;
 593:BLEApplications.c **** 				
 594:BLEApplications.c **** 				/* Set the drive mode of LED to Strong to allow driving the LED */
 595:BLEApplications.c **** 				RED_SetDriveMode(RED_DM_STRONG);
 596:BLEApplications.c **** 
ARM GAS  C:\Users\Jack\AppData\Local\Temp\ccYWX8Tu.s 			page 30


 597:BLEApplications.c **** 				/* Put the Status LED to ON state */
 598:BLEApplications.c **** 				PrISM_1_WritePulse0(RGB_LED_ON);
 599:BLEApplications.c **** 				
 600:BLEApplications.c **** 				/* Set flag and counter for Connection indication on LED */
 601:BLEApplications.c **** 				switch_off_status_led = TRUE;
 602:BLEApplications.c **** 				timer_tick = LED_CONN_ON_TIME;
 603:BLEApplications.c **** 				
 604:BLEApplications.c **** 				/* Initialize the Watchdog for 1 second timing events. The watchdog 
 605:BLEApplications.c **** 				* is initialized after connection and disabled after disconnection.
 606:BLEApplications.c **** 				* This is done to ensure that Watchdog provides periodic wakeup only
 607:BLEApplications.c **** 				* when the system is connected and RGB LED control is required. During 
 608:BLEApplications.c **** 				* other times, it should not wakeup the system, causing increase in power
 609:BLEApplications.c **** 				* consumption */
 610:BLEApplications.c **** 				InitializeWatchdog();
 611:BLEApplications.c **** 			}
 612:BLEApplications.c **** 		break;
 613:BLEApplications.c **** 		
 614:BLEApplications.c **** 		case CYBLE_STATE_ADVERTISING:
 615:BLEApplications.c **** 			/* If the present BLE state is advertising, toggle the LED
 616:BLEApplications.c **** 			* at pre-determined period to indicate advertising. */
 617:BLEApplications.c **** 			if((--led_counter) == FALSE)
 618:BLEApplications.c **** 			{
 619:BLEApplications.c **** 				/* Toggle Status LED for indicating Advertisement */
 620:BLEApplications.c **** 				if(PrISM_1_ReadPulse0() == RGB_LED_OFF)
 621:BLEApplications.c **** 				{
 622:BLEApplications.c **** 					PrISM_1_WritePulse0(RGB_LED_ON);
 623:BLEApplications.c **** 					RED_SetDriveMode(RED_DM_STRONG);
 624:BLEApplications.c **** 					
 625:BLEApplications.c **** 					led_counter	= LED_ADV_BLINK_PERIOD_ON;
 626:BLEApplications.c **** 				}
 627:BLEApplications.c **** 				else
 628:BLEApplications.c **** 				{
 629:BLEApplications.c **** 					PrISM_1_WritePulse0(RGB_LED_OFF);
 630:BLEApplications.c **** 					RED_SetDriveMode(RED_DM_ALG_HIZ);
 631:BLEApplications.c **** 					
 632:BLEApplications.c **** 					led_counter	= LED_ADV_BLINK_PERIOD_OFF;
 633:BLEApplications.c **** 				}
 634:BLEApplications.c **** 			}
 635:BLEApplications.c **** 		break;
 636:BLEApplications.c **** 		
 637:BLEApplications.c **** 		case CYBLE_STATE_DISCONNECTED:
 638:BLEApplications.c **** 			/* If the present BLE state is disconnected, switch off LED
 639:BLEApplications.c **** 			* and set the drive mode of LED to Hi-Z (Analog)*/
 640:BLEApplications.c **** 			PrISM_1_WritePulse0(RGB_LED_OFF);
 641:BLEApplications.c **** 			RED_SetDriveMode(RED_DM_ALG_HIZ);
 642:BLEApplications.c **** 			GREEN_SetDriveMode(GREEN_DM_ALG_HIZ);
 643:BLEApplications.c **** 			BLUE_SetDriveMode(BLUE_DM_ALG_HIZ);
 644:BLEApplications.c **** 			
 645:BLEApplications.c **** 			/* Disable Watchdog to prevent Watchdog waking system after
 646:BLEApplications.c **** 			*  disconnection */
 647:BLEApplications.c **** 			CyIntDisable(WATCHDOG_INT_VEC_NUM);
 648:BLEApplications.c **** 		break;
 649:BLEApplications.c **** 		
 650:BLEApplications.c **** 		default:
 651:BLEApplications.c **** 
 652:BLEApplications.c **** 		break;
 982              		.loc 1 652 0
ARM GAS  C:\Users\Jack\AppData\Local\Temp\ccYWX8Tu.s 			page 31


 983 0044 4AE0     		b	.L58
 984              	.L56:
 589:BLEApplications.c **** 			{
 985              		.loc 1 589 0
 986 0046 FB1D     		adds	r3, r7, #7
 987 0048 1B78     		ldrb	r3, [r3]
 988 004a 002B     		cmp	r3, #0
 989 004c 43D0     		beq	.L61
 592:BLEApplications.c **** 				
 990              		.loc 1 592 0
 991 004e FB1D     		adds	r3, r7, #7
 992 0050 0022     		movs	r2, #0
 993 0052 1A70     		strb	r2, [r3]
 595:BLEApplications.c **** 
 994              		.loc 1 595 0
 995 0054 0620     		movs	r0, #6
 996 0056 FFF7FEFF 		bl	RED_SetDriveMode
 598:BLEApplications.c **** 				
 997              		.loc 1 598 0
 998 005a 0020     		movs	r0, #0
 999 005c FFF7FEFF 		bl	PrISM_1_WritePulse0
 601:BLEApplications.c **** 				timer_tick = LED_CONN_ON_TIME;
 1000              		.loc 1 601 0
 1001 0060 254B     		ldr	r3, .L63+12
 1002 0062 0122     		movs	r2, #1
 1003 0064 1A70     		strb	r2, [r3]
 602:BLEApplications.c **** 				
 1004              		.loc 1 602 0
 1005 0066 254B     		ldr	r3, .L63+16
 1006 0068 0222     		movs	r2, #2
 1007 006a 1A70     		strb	r2, [r3]
 610:BLEApplications.c **** 			}
 1008              		.loc 1 610 0
 1009 006c FFF7FEFF 		bl	InitializeWatchdog
 612:BLEApplications.c **** 		
 1010              		.loc 1 612 0
 1011 0070 31E0     		b	.L61
 1012              	.L54:
 617:BLEApplications.c **** 			{
 1013              		.loc 1 617 0
 1014 0072 204B     		ldr	r3, .L63+8
 1015 0074 1B68     		ldr	r3, [r3]
 1016 0076 5A1E     		subs	r2, r3, #1
 1017 0078 1E4B     		ldr	r3, .L63+8
 1018 007a 1A60     		str	r2, [r3]
 1019 007c 1D4B     		ldr	r3, .L63+8
 1020 007e 1B68     		ldr	r3, [r3]
 1021 0080 002B     		cmp	r3, #0
 1022 0082 2AD1     		bne	.L62
 620:BLEApplications.c **** 				{
 1023              		.loc 1 620 0
 1024 0084 FFF7FEFF 		bl	PrISM_1_ReadPulse0
 1025 0088 0300     		movs	r3, r0
 1026 008a FF2B     		cmp	r3, #255
 1027 008c 09D1     		bne	.L60
 622:BLEApplications.c **** 					RED_SetDriveMode(RED_DM_STRONG);
 1028              		.loc 1 622 0
ARM GAS  C:\Users\Jack\AppData\Local\Temp\ccYWX8Tu.s 			page 32


 1029 008e 0020     		movs	r0, #0
 1030 0090 FFF7FEFF 		bl	PrISM_1_WritePulse0
 623:BLEApplications.c **** 					
 1031              		.loc 1 623 0
 1032 0094 0620     		movs	r0, #6
 1033 0096 FFF7FEFF 		bl	RED_SetDriveMode
 625:BLEApplications.c **** 				}
 1034              		.loc 1 625 0
 1035 009a 164B     		ldr	r3, .L63+8
 1036 009c 0422     		movs	r2, #4
 1037 009e 1A60     		str	r2, [r3]
 635:BLEApplications.c **** 		
 1038              		.loc 1 635 0
 1039 00a0 1BE0     		b	.L62
 1040              	.L60:
 629:BLEApplications.c **** 					RED_SetDriveMode(RED_DM_ALG_HIZ);
 1041              		.loc 1 629 0
 1042 00a2 FF20     		movs	r0, #255
 1043 00a4 FFF7FEFF 		bl	PrISM_1_WritePulse0
 630:BLEApplications.c **** 					
 1044              		.loc 1 630 0
 1045 00a8 0020     		movs	r0, #0
 1046 00aa FFF7FEFF 		bl	RED_SetDriveMode
 632:BLEApplications.c **** 				}
 1047              		.loc 1 632 0
 1048 00ae 114B     		ldr	r3, .L63+8
 1049 00b0 1422     		movs	r2, #20
 1050 00b2 1A60     		str	r2, [r3]
 635:BLEApplications.c **** 		
 1051              		.loc 1 635 0
 1052 00b4 11E0     		b	.L62
 1053              	.L55:
 640:BLEApplications.c **** 			RED_SetDriveMode(RED_DM_ALG_HIZ);
 1054              		.loc 1 640 0
 1055 00b6 FF20     		movs	r0, #255
 1056 00b8 FFF7FEFF 		bl	PrISM_1_WritePulse0
 641:BLEApplications.c **** 			GREEN_SetDriveMode(GREEN_DM_ALG_HIZ);
 1057              		.loc 1 641 0
 1058 00bc 0020     		movs	r0, #0
 1059 00be FFF7FEFF 		bl	RED_SetDriveMode
 642:BLEApplications.c **** 			BLUE_SetDriveMode(BLUE_DM_ALG_HIZ);
 1060              		.loc 1 642 0
 1061 00c2 0020     		movs	r0, #0
 1062 00c4 FFF7FEFF 		bl	GREEN_SetDriveMode
 643:BLEApplications.c **** 			
 1063              		.loc 1 643 0
 1064 00c8 0020     		movs	r0, #0
 1065 00ca FFF7FEFF 		bl	BLUE_SetDriveMode
 647:BLEApplications.c **** 		break;
 1066              		.loc 1 647 0
 1067 00ce 0820     		movs	r0, #8
 1068 00d0 FFF7FEFF 		bl	CyIntDisable
 648:BLEApplications.c **** 		
 1069              		.loc 1 648 0
 1070 00d4 02E0     		b	.L58
 1071              	.L61:
 612:BLEApplications.c **** 		
ARM GAS  C:\Users\Jack\AppData\Local\Temp\ccYWX8Tu.s 			page 33


 1072              		.loc 1 612 0
 1073 00d6 C046     		nop
 1074 00d8 00E0     		b	.L58
 1075              	.L62:
 635:BLEApplications.c **** 		
 1076              		.loc 1 635 0
 1077 00da C046     		nop
 1078              	.L58:
 653:BLEApplications.c **** 	}
 654:BLEApplications.c **** 	
 655:BLEApplications.c **** 	/* Reset the state changed flag. */
 656:BLEApplications.c **** 	state_changed = FALSE;
 1079              		.loc 1 656 0
 1080 00dc FB1D     		adds	r3, r7, #7
 1081 00de 0022     		movs	r2, #0
 1082 00e0 1A70     		strb	r2, [r3]
 657:BLEApplications.c **** }
 1083              		.loc 1 657 0
 1084 00e2 C046     		nop
 1085 00e4 BD46     		mov	sp, r7
 1086 00e6 02B0     		add	sp, sp, #8
 1087              		@ sp needed
 1088 00e8 80BD     		pop	{r7, pc}
 1089              	.L64:
 1090 00ea C046     		.align	2
 1091              	.L63:
 1092 00ec 0D000000 		.word	state.7651
 1093 00f0 00000000 		.word	cyBle_state
 1094 00f4 10000000 		.word	led_counter.7650
 1095 00f8 00000000 		.word	switch_off_status_led
 1096 00fc 00000000 		.word	timer_tick
 1097              		.cfi_endproc
 1098              	.LFE40:
 1099              		.size	HandleStatusLED, .-HandleStatusLED
 1100              		.section	.text.WDT_INT_Handler,"ax",%progbits
 1101              		.align	2
 1102              		.global	WDT_INT_Handler
 1103              		.code	16
 1104              		.thumb_func
 1105              		.type	WDT_INT_Handler, %function
 1106              	WDT_INT_Handler:
 1107              	.LFB41:
 658:BLEApplications.c **** 
 659:BLEApplications.c **** /*******************************************************************************
 660:BLEApplications.c **** * Function Name: WDT_INT_Handler
 661:BLEApplications.c **** ********************************************************************************
 662:BLEApplications.c **** * Summary:
 663:BLEApplications.c **** *        Watchdog interrupt routine for controlling LED status in connected state
 664:BLEApplications.c **** *
 665:BLEApplications.c **** * Parameters:
 666:BLEApplications.c **** *  void
 667:BLEApplications.c **** *
 668:BLEApplications.c **** * Return:
 669:BLEApplications.c **** *  void
 670:BLEApplications.c **** *
 671:BLEApplications.c **** *******************************************************************************/
 672:BLEApplications.c **** void WDT_INT_Handler(void)
ARM GAS  C:\Users\Jack\AppData\Local\Temp\ccYWX8Tu.s 			page 34


 673:BLEApplications.c **** {
 1108              		.loc 1 673 0
 1109              		.cfi_startproc
 1110              		@ args = 0, pretend = 0, frame = 0
 1111              		@ frame_needed = 1, uses_anonymous_args = 0
 1112 0000 80B5     		push	{r7, lr}
 1113              		.cfi_def_cfa_offset 8
 1114              		.cfi_offset 7, -8
 1115              		.cfi_offset 14, -4
 1116 0002 00AF     		add	r7, sp, #0
 1117              		.cfi_def_cfa_register 7
 674:BLEApplications.c **** 	/* If the Interrupt source is Counter 0 match, then process */
 675:BLEApplications.c **** 	if(CySysWdtGetInterruptSource() & CY_SYS_WDT_COUNTER0_INT)
 1118              		.loc 1 675 0
 1119 0004 FFF7FEFF 		bl	CySysWdtGetInterruptSource
 1120 0008 0200     		movs	r2, r0
 1121 000a 0423     		movs	r3, #4
 1122 000c 1340     		ands	r3, r2
 1123 000e 4BD0     		beq	.L72
 676:BLEApplications.c **** 	{
 677:BLEApplications.c **** 		/* Clear Watchdog Interrupt from Counter 0 */
 678:BLEApplications.c **** 		CySysWdtClearInterrupt(CY_SYS_WDT_COUNTER0_INT);
 1124              		.loc 1 678 0
 1125 0010 0420     		movs	r0, #4
 1126 0012 FFF7FEFF 		bl	CySysWdtClearInterrupt
 679:BLEApplications.c **** 		
 680:BLEApplications.c **** 		/* If switch_off_status_led is TRUE, then the Connection status LED 
 681:BLEApplications.c **** 		* is ON and it is required to shut it down after 3 seconds */
 682:BLEApplications.c **** 		if(switch_off_status_led)
 1127              		.loc 1 682 0
 1128 0016 264B     		ldr	r3, .L73
 1129 0018 1B78     		ldrb	r3, [r3]
 1130 001a 002B     		cmp	r3, #0
 1131 001c 14D0     		beq	.L67
 683:BLEApplications.c **** 		{
 684:BLEApplications.c **** 			/* If timer ticks for Connection status LED ON period has expired, then switch
 685:BLEApplications.c **** 			* off LED */
 686:BLEApplications.c **** 			if(timer_tick == FALSE)
 1132              		.loc 1 686 0
 1133 001e 254B     		ldr	r3, .L73+4
 1134 0020 1B78     		ldrb	r3, [r3]
 1135 0022 002B     		cmp	r3, #0
 1136 0024 09D1     		bne	.L68
 687:BLEApplications.c **** 			{
 688:BLEApplications.c **** 				/* Switch off Status LED */
 689:BLEApplications.c **** 				PrISM_1_WritePulse0(RGB_LED_OFF);
 1137              		.loc 1 689 0
 1138 0026 FF20     		movs	r0, #255
 1139 0028 FFF7FEFF 		bl	PrISM_1_WritePulse0
 690:BLEApplications.c **** 				
 691:BLEApplications.c **** 				/* Set the drive mode of LED to Analog HiZ to prevent leakage current */
 692:BLEApplications.c **** 				RED_SetDriveMode(RED_DM_ALG_HIZ);
 1140              		.loc 1 692 0
 1141 002c 0020     		movs	r0, #0
 1142 002e FFF7FEFF 		bl	RED_SetDriveMode
 693:BLEApplications.c **** 				
 694:BLEApplications.c **** 				/* Reset the Flag */
ARM GAS  C:\Users\Jack\AppData\Local\Temp\ccYWX8Tu.s 			page 35


 695:BLEApplications.c **** 				switch_off_status_led = FALSE;
 1143              		.loc 1 695 0
 1144 0032 1F4B     		ldr	r3, .L73
 1145 0034 0022     		movs	r2, #0
 1146 0036 1A70     		strb	r2, [r3]
 1147 0038 1DE0     		b	.L70
 1148              	.L68:
 696:BLEApplications.c **** 				
 697:BLEApplications.c **** 			}
 698:BLEApplications.c **** 			else
 699:BLEApplications.c **** 			{
 700:BLEApplications.c **** 				/* Decrement timer_tick as counting method */
 701:BLEApplications.c **** 				timer_tick--;
 1149              		.loc 1 701 0
 1150 003a 1E4B     		ldr	r3, .L73+4
 1151 003c 1B78     		ldrb	r3, [r3]
 1152 003e 013B     		subs	r3, r3, #1
 1153 0040 DAB2     		uxtb	r2, r3
 1154 0042 1C4B     		ldr	r3, .L73+4
 1155 0044 1A70     		strb	r2, [r3]
 1156 0046 16E0     		b	.L70
 1157              	.L67:
 702:BLEApplications.c **** 			}
 703:BLEApplications.c **** 		}
 704:BLEApplications.c **** 		/* If the LED activity for Connection LED ON is completed, then firmware is 
 705:BLEApplications.c **** 		* allowed to do timing for RGB LED Control operation after connection. This 
 706:BLEApplications.c **** 		* operation keeps the RGB LED ON for determined time (default 3 seconds) from
 707:BLEApplications.c **** 		* the last time RGB LED data was sent. This ensures that continuous usage of 
 708:BLEApplications.c **** 		* the kit in RGB mode does not consume too much power */
 709:BLEApplications.c **** 		else
 710:BLEApplications.c **** 		{
 711:BLEApplications.c **** 			/* After displaying color for predetermined time, switch off 
 712:BLEApplications.c **** 			* the LEDs to save power */
 713:BLEApplications.c **** 			if(FALSE == led_timer)
 1158              		.loc 1 713 0
 1159 0048 1B4B     		ldr	r3, .L73+8
 1160 004a 1B78     		ldrb	r3, [r3]
 1161 004c 002B     		cmp	r3, #0
 1162 004e 0CD1     		bne	.L71
 714:BLEApplications.c **** 			{
 715:BLEApplications.c **** 				/* Set the flag to indicate to the Low power mode function that system 
 716:BLEApplications.c **** 				* can be put to Deep Sleep as no LED operation is required */
 717:BLEApplications.c **** 				shut_down_led= TRUE;
 1163              		.loc 1 717 0
 1164 0050 1A4B     		ldr	r3, .L73+12
 1165 0052 0122     		movs	r2, #1
 1166 0054 1A70     		strb	r2, [r3]
 718:BLEApplications.c **** 				
 719:BLEApplications.c **** 				/* Shut down LEDs*/
 720:BLEApplications.c **** 				RED_SetDriveMode(RED_DM_ALG_HIZ);
 1167              		.loc 1 720 0
 1168 0056 0020     		movs	r0, #0
 1169 0058 FFF7FEFF 		bl	RED_SetDriveMode
 721:BLEApplications.c **** 				GREEN_SetDriveMode(GREEN_DM_ALG_HIZ);
 1170              		.loc 1 721 0
 1171 005c 0020     		movs	r0, #0
 1172 005e FFF7FEFF 		bl	GREEN_SetDriveMode
ARM GAS  C:\Users\Jack\AppData\Local\Temp\ccYWX8Tu.s 			page 36


 722:BLEApplications.c **** 				BLUE_SetDriveMode(BLUE_DM_ALG_HIZ);
 1173              		.loc 1 722 0
 1174 0062 0020     		movs	r0, #0
 1175 0064 FFF7FEFF 		bl	BLUE_SetDriveMode
 1176 0068 05E0     		b	.L70
 1177              	.L71:
 723:BLEApplications.c **** 			}
 724:BLEApplications.c **** 			else
 725:BLEApplications.c **** 			{	
 726:BLEApplications.c **** 				/* Decrement the led_timer as counting method for RGB LED Control. During
 727:BLEApplications.c **** 				* this period, the PrISM is active and drives the signal to display the 
 728:BLEApplications.c **** 				* appropriate color */
 729:BLEApplications.c **** 				led_timer--;
 1178              		.loc 1 729 0
 1179 006a 134B     		ldr	r3, .L73+8
 1180 006c 1B78     		ldrb	r3, [r3]
 1181 006e 013B     		subs	r3, r3, #1
 1182 0070 DAB2     		uxtb	r2, r3
 1183 0072 114B     		ldr	r3, .L73+8
 1184 0074 1A70     		strb	r2, [r3]
 1185              	.L70:
 730:BLEApplications.c **** 			}
 731:BLEApplications.c **** 		}
 732:BLEApplications.c **** 		
 733:BLEApplications.c **** 		/* Unlock the WDT registers for modification */
 734:BLEApplications.c **** 		CySysWdtUnlock();
 1186              		.loc 1 734 0
 1187 0076 FFF7FEFF 		bl	CySysWdtUnlock
 735:BLEApplications.c **** 		
 736:BLEApplications.c **** 		/* Disable Counter 0 to allow modifications */
 737:BLEApplications.c **** 		CySysWdtDisable(CY_SYS_WDT_COUNTER0_MASK);
 1188              		.loc 1 737 0
 1189 007a 0120     		movs	r0, #1
 1190 007c FFF7FEFF 		bl	CySysWdtDisable
 738:BLEApplications.c **** 		
 739:BLEApplications.c **** 		/* Reset Counter 0 and give ~3 LFCLK cycles to take effect */
 740:BLEApplications.c **** 		CySysWdtResetCounters(CY_SYS_WDT_COUNTER0_RESET);
 1191              		.loc 1 740 0
 1192 0080 0820     		movs	r0, #8
 1193 0082 FFF7FEFF 		bl	CySysWdtResetCounters
 741:BLEApplications.c **** 		CyDelayUs(WATCHDOG_REG_UPDATE_WAIT_TIME);
 1194              		.loc 1 741 0
 1195 0086 6420     		movs	r0, #100
 1196 0088 FFF7FEFF 		bl	CyDelayUs
 742:BLEApplications.c **** 		
 743:BLEApplications.c **** 		/* Write the Counter 0 match value for 1 second and give ~3 LFCLK
 744:BLEApplications.c **** 		* cycles to take effect */
 745:BLEApplications.c **** 		CySysWdtWriteMatch(CY_SYS_WDT_COUNTER0, WATCHDOG_ONE_SEC_COUNT_VAL);
 1197              		.loc 1 745 0
 1198 008c 8023     		movs	r3, #128
 1199 008e 1B02     		lsls	r3, r3, #8
 1200 0090 1900     		movs	r1, r3
 1201 0092 0020     		movs	r0, #0
 1202 0094 FFF7FEFF 		bl	CySysWdtSetMatch
 746:BLEApplications.c **** 		CyDelayUs(WATCHDOG_REG_UPDATE_WAIT_TIME);
 1203              		.loc 1 746 0
 1204 0098 6420     		movs	r0, #100
ARM GAS  C:\Users\Jack\AppData\Local\Temp\ccYWX8Tu.s 			page 37


 1205 009a FFF7FEFF 		bl	CyDelayUs
 747:BLEApplications.c **** 		
 748:BLEApplications.c **** 		/* Enable Watchdog Counter 0 */
 749:BLEApplications.c **** 		CySysWdtEnable(CY_SYS_WDT_COUNTER0_MASK);
 1206              		.loc 1 749 0
 1207 009e 0120     		movs	r0, #1
 1208 00a0 FFF7FEFF 		bl	CySysWdtEnable
 750:BLEApplications.c **** 		
 751:BLEApplications.c **** 		/* Lock Watchdog to prevent any further change */
 752:BLEApplications.c **** 	    CySysWdtLock();
 1209              		.loc 1 752 0
 1210 00a4 FFF7FEFF 		bl	CySysWdtLock
 1211              	.L72:
 753:BLEApplications.c **** 	}
 754:BLEApplications.c **** }
 1212              		.loc 1 754 0
 1213 00a8 C046     		nop
 1214 00aa BD46     		mov	sp, r7
 1215              		@ sp needed
 1216 00ac 80BD     		pop	{r7, pc}
 1217              	.L74:
 1218 00ae C046     		.align	2
 1219              	.L73:
 1220 00b0 00000000 		.word	switch_off_status_led
 1221 00b4 00000000 		.word	timer_tick
 1222 00b8 00000000 		.word	led_timer
 1223 00bc 00000000 		.word	shut_down_led
 1224              		.cfi_endproc
 1225              	.LFE41:
 1226              		.size	WDT_INT_Handler, .-WDT_INT_Handler
 1227              		.section	.text.InitializeWatchdog,"ax",%progbits
 1228              		.align	2
 1229              		.global	InitializeWatchdog
 1230              		.code	16
 1231              		.thumb_func
 1232              		.type	InitializeWatchdog, %function
 1233              	InitializeWatchdog:
 1234              	.LFB42:
 755:BLEApplications.c **** 
 756:BLEApplications.c **** /*******************************************************************************
 757:BLEApplications.c **** * Function Name: InitializeWatchdog
 758:BLEApplications.c **** ********************************************************************************
 759:BLEApplications.c **** * Summary:
 760:BLEApplications.c **** *        Reset watchdog timer
 761:BLEApplications.c **** *
 762:BLEApplications.c **** * Parameters:
 763:BLEApplications.c **** *  void
 764:BLEApplications.c **** *
 765:BLEApplications.c **** * Return:
 766:BLEApplications.c **** *  void
 767:BLEApplications.c **** *
 768:BLEApplications.c **** *******************************************************************************/
 769:BLEApplications.c **** void InitializeWatchdog(void)
 770:BLEApplications.c **** {
 1235              		.loc 1 770 0
 1236              		.cfi_startproc
 1237              		@ args = 0, pretend = 0, frame = 0
ARM GAS  C:\Users\Jack\AppData\Local\Temp\ccYWX8Tu.s 			page 38


 1238              		@ frame_needed = 1, uses_anonymous_args = 0
 1239 0000 80B5     		push	{r7, lr}
 1240              		.cfi_def_cfa_offset 8
 1241              		.cfi_offset 7, -8
 1242              		.cfi_offset 14, -4
 1243 0002 00AF     		add	r7, sp, #0
 1244              		.cfi_def_cfa_register 7
 771:BLEApplications.c **** 	/* Unlock the WDT registers for modification */
 772:BLEApplications.c **** 	CySysWdtUnlock(); 
 1245              		.loc 1 772 0
 1246 0004 FFF7FEFF 		bl	CySysWdtUnlock
 773:BLEApplications.c **** 	
 774:BLEApplications.c **** 	/* Write Mode for Counter 0 as Interrupt on Match */
 775:BLEApplications.c ****     CySysWdtWriteMode(CY_SYS_WDT_COUNTER0, CY_SYS_WDT_MODE_INT);
 1247              		.loc 1 775 0
 1248 0008 0121     		movs	r1, #1
 1249 000a 0020     		movs	r0, #0
 1250 000c FFF7FEFF 		bl	CySysWdtSetMode
 776:BLEApplications.c **** 	
 777:BLEApplications.c **** 	/* Set Clear on Match for Counter 0*/
 778:BLEApplications.c **** 	CySysWdtWriteClearOnMatch(CY_SYS_WDT_COUNTER0, TRUE);
 1251              		.loc 1 778 0
 1252 0010 0121     		movs	r1, #1
 1253 0012 0020     		movs	r0, #0
 1254 0014 FFF7FEFF 		bl	CySysWdtSetClearOnMatch
 779:BLEApplications.c ****     
 780:BLEApplications.c **** 	/* Set Watchdog interrupt to lower priority */
 781:BLEApplications.c **** 	CyIntSetPriority(WATCHDOG_INT_VEC_NUM, WATCHDOG_INT_VEC_PRIORITY);
 1255              		.loc 1 781 0
 1256 0018 0321     		movs	r1, #3
 1257 001a 0820     		movs	r0, #8
 1258 001c FFF7FEFF 		bl	CyIntSetPriority
 782:BLEApplications.c **** 	
 783:BLEApplications.c **** 	/* Enable Watchdog Interrupt using Interrupt number */
 784:BLEApplications.c ****     CyIntEnable(WATCHDOG_INT_VEC_NUM);
 1259              		.loc 1 784 0
 1260 0020 0820     		movs	r0, #8
 1261 0022 FFF7FEFF 		bl	CyIntEnable
 785:BLEApplications.c **** 	
 786:BLEApplications.c **** 	/* Write the match value equal to 1 second in Counter 0 */
 787:BLEApplications.c **** 	CySysWdtWriteMatch(CY_SYS_WDT_COUNTER0, WATCHDOG_ONE_SEC_COUNT_VAL);
 1262              		.loc 1 787 0
 1263 0026 8023     		movs	r3, #128
 1264 0028 1B02     		lsls	r3, r3, #8
 1265 002a 1900     		movs	r1, r3
 1266 002c 0020     		movs	r0, #0
 1267 002e FFF7FEFF 		bl	CySysWdtSetMatch
 788:BLEApplications.c ****     
 789:BLEApplications.c **** 	/* Enable Counter 0 */
 790:BLEApplications.c ****     CySysWdtEnable(CY_SYS_WDT_COUNTER0_MASK);
 1268              		.loc 1 790 0
 1269 0032 0120     		movs	r0, #1
 1270 0034 FFF7FEFF 		bl	CySysWdtEnable
 791:BLEApplications.c **** 	
 792:BLEApplications.c **** 	/* Lock Watchdog to prevent further changes */
 793:BLEApplications.c ****     CySysWdtLock();
 1271              		.loc 1 793 0
ARM GAS  C:\Users\Jack\AppData\Local\Temp\ccYWX8Tu.s 			page 39


 1272 0038 FFF7FEFF 		bl	CySysWdtLock
 794:BLEApplications.c **** }
 1273              		.loc 1 794 0
 1274 003c C046     		nop
 1275 003e BD46     		mov	sp, r7
 1276              		@ sp needed
 1277 0040 80BD     		pop	{r7, pc}
 1278              		.cfi_endproc
 1279              	.LFE42:
 1280              		.size	InitializeWatchdog, .-InitializeWatchdog
 1281 0042 C046     		.data
 1282              		.type	state.7651, %object
 1283              		.size	state.7651, 1
 1284              	state.7651:
 1285 000d FF       		.byte	-1
 1286 000e 0000     		.align	2
 1287              		.type	led_counter.7650, %object
 1288              		.size	led_counter.7650, 4
 1289              	led_counter.7650:
 1290 0010 01000000 		.word	1
 1291              		.text
 1292              	.Letext0:
 1293              		.file 2 "Generated_Source\\PSoC4/cytypes.h"
 1294              		.file 3 "Generated_Source\\PSoC4/BLE_StackGap.h"
 1295              		.file 4 "Generated_Source\\PSoC4/BLE_StackGatt.h"
 1296              		.file 5 "Generated_Source\\PSoC4/BLE_StackGattServer.h"
 1297              		.file 6 "Generated_Source\\PSoC4/BLE_Stack.h"
 1298              		.file 7 "Generated_Source\\PSoC4/BLE_eventHandler.h"
 1299              		.section	.debug_info,"",%progbits
 1300              	.Ldebug_info0:
 1301 0000 D8060000 		.4byte	0x6d8
 1302 0004 0400     		.2byte	0x4
 1303 0006 00000000 		.4byte	.Ldebug_abbrev0
 1304 000a 04       		.byte	0x4
 1305 000b 01       		.uleb128 0x1
 1306 000c 1B070000 		.4byte	.LASF155
 1307 0010 0C       		.byte	0xc
 1308 0011 AF0C0000 		.4byte	.LASF156
 1309 0015 2F0D0000 		.4byte	.LASF157
 1310 0019 00000000 		.4byte	.Ldebug_ranges0+0
 1311 001d 00000000 		.4byte	0
 1312 0021 00000000 		.4byte	.Ldebug_line0
 1313 0025 02       		.uleb128 0x2
 1314 0026 01       		.byte	0x1
 1315 0027 06       		.byte	0x6
 1316 0028 B3020000 		.4byte	.LASF0
 1317 002c 02       		.uleb128 0x2
 1318 002d 01       		.byte	0x1
 1319 002e 08       		.byte	0x8
 1320 002f 8D0A0000 		.4byte	.LASF1
 1321 0033 02       		.uleb128 0x2
 1322 0034 02       		.byte	0x2
 1323 0035 05       		.byte	0x5
 1324 0036 D90A0000 		.4byte	.LASF2
 1325 003a 02       		.uleb128 0x2
 1326 003b 02       		.byte	0x2
 1327 003c 07       		.byte	0x7
ARM GAS  C:\Users\Jack\AppData\Local\Temp\ccYWX8Tu.s 			page 40


 1328 003d 20060000 		.4byte	.LASF3
 1329 0041 02       		.uleb128 0x2
 1330 0042 04       		.byte	0x4
 1331 0043 05       		.byte	0x5
 1332 0044 AA010000 		.4byte	.LASF4
 1333 0048 02       		.uleb128 0x2
 1334 0049 04       		.byte	0x4
 1335 004a 07       		.byte	0x7
 1336 004b 0C050000 		.4byte	.LASF5
 1337 004f 02       		.uleb128 0x2
 1338 0050 08       		.byte	0x8
 1339 0051 05       		.byte	0x5
 1340 0052 A5020000 		.4byte	.LASF6
 1341 0056 02       		.uleb128 0x2
 1342 0057 08       		.byte	0x8
 1343 0058 07       		.byte	0x7
 1344 0059 B3010000 		.4byte	.LASF7
 1345 005d 03       		.uleb128 0x3
 1346 005e 04       		.byte	0x4
 1347 005f 05       		.byte	0x5
 1348 0060 696E7400 		.ascii	"int\000"
 1349 0064 02       		.uleb128 0x2
 1350 0065 04       		.byte	0x4
 1351 0066 07       		.byte	0x7
 1352 0067 E0040000 		.4byte	.LASF8
 1353 006b 04       		.uleb128 0x4
 1354 006c ED030000 		.4byte	.LASF9
 1355 0070 02       		.byte	0x2
 1356 0071 E401     		.2byte	0x1e4
 1357 0073 2C000000 		.4byte	0x2c
 1358 0077 04       		.uleb128 0x4
 1359 0078 9B0A0000 		.4byte	.LASF10
 1360 007c 02       		.byte	0x2
 1361 007d E501     		.2byte	0x1e5
 1362 007f 3A000000 		.4byte	0x3a
 1363 0083 04       		.uleb128 0x4
 1364 0084 48040000 		.4byte	.LASF11
 1365 0088 02       		.byte	0x2
 1366 0089 E601     		.2byte	0x1e6
 1367 008b 48000000 		.4byte	0x48
 1368 008f 02       		.uleb128 0x2
 1369 0090 04       		.byte	0x4
 1370 0091 04       		.byte	0x4
 1371 0092 3F0A0000 		.4byte	.LASF12
 1372 0096 02       		.uleb128 0x2
 1373 0097 08       		.byte	0x8
 1374 0098 04       		.byte	0x4
 1375 0099 12040000 		.4byte	.LASF13
 1376 009d 02       		.uleb128 0x2
 1377 009e 01       		.byte	0x1
 1378 009f 08       		.byte	0x8
 1379 00a0 220C0000 		.4byte	.LASF14
 1380 00a4 02       		.uleb128 0x2
 1381 00a5 04       		.byte	0x4
 1382 00a6 07       		.byte	0x7
 1383 00a7 95080000 		.4byte	.LASF15
 1384 00ab 02       		.uleb128 0x2
ARM GAS  C:\Users\Jack\AppData\Local\Temp\ccYWX8Tu.s 			page 41


 1385 00ac 08       		.byte	0x8
 1386 00ad 04       		.byte	0x4
 1387 00ae F40B0000 		.4byte	.LASF16
 1388 00b2 05       		.uleb128 0x5
 1389 00b3 04       		.byte	0x4
 1390 00b4 06       		.uleb128 0x6
 1391 00b5 04       		.byte	0x4
 1392 00b6 6B000000 		.4byte	0x6b
 1393 00ba 07       		.uleb128 0x7
 1394 00bb 01       		.byte	0x1
 1395 00bc 2C000000 		.4byte	0x2c
 1396 00c0 06       		.byte	0x6
 1397 00c1 3201     		.2byte	0x132
 1398 00c3 78020000 		.4byte	0x278
 1399 00c7 08       		.uleb128 0x8
 1400 00c8 33060000 		.4byte	.LASF17
 1401 00cc 00       		.byte	0
 1402 00cd 08       		.uleb128 0x8
 1403 00ce BF020000 		.4byte	.LASF18
 1404 00d2 01       		.byte	0x1
 1405 00d3 08       		.uleb128 0x8
 1406 00d4 98010000 		.4byte	.LASF19
 1407 00d8 02       		.byte	0x2
 1408 00d9 08       		.uleb128 0x8
 1409 00da 160D0000 		.4byte	.LASF20
 1410 00de 03       		.byte	0x3
 1411 00df 08       		.uleb128 0x8
 1412 00e0 DD010000 		.4byte	.LASF21
 1413 00e4 04       		.byte	0x4
 1414 00e5 08       		.uleb128 0x8
 1415 00e6 23000000 		.4byte	.LASF22
 1416 00ea 05       		.byte	0x5
 1417 00eb 08       		.uleb128 0x8
 1418 00ec D2020000 		.4byte	.LASF23
 1419 00f0 06       		.byte	0x6
 1420 00f1 08       		.uleb128 0x8
 1421 00f2 E6070000 		.4byte	.LASF24
 1422 00f6 20       		.byte	0x20
 1423 00f7 08       		.uleb128 0x8
 1424 00f8 1F030000 		.4byte	.LASF25
 1425 00fc 21       		.byte	0x21
 1426 00fd 08       		.uleb128 0x8
 1427 00fe 8A060000 		.4byte	.LASF26
 1428 0102 22       		.byte	0x22
 1429 0103 08       		.uleb128 0x8
 1430 0104 F00C0000 		.4byte	.LASF27
 1431 0108 23       		.byte	0x23
 1432 0109 08       		.uleb128 0x8
 1433 010a A3090000 		.4byte	.LASF28
 1434 010e 24       		.byte	0x24
 1435 010f 08       		.uleb128 0x8
 1436 0110 F4080000 		.4byte	.LASF29
 1437 0114 25       		.byte	0x25
 1438 0115 08       		.uleb128 0x8
 1439 0116 C5030000 		.4byte	.LASF30
 1440 011a 26       		.byte	0x26
 1441 011b 08       		.uleb128 0x8
ARM GAS  C:\Users\Jack\AppData\Local\Temp\ccYWX8Tu.s 			page 42


 1442 011c AE060000 		.4byte	.LASF31
 1443 0120 27       		.byte	0x27
 1444 0121 08       		.uleb128 0x8
 1445 0122 440C0000 		.4byte	.LASF32
 1446 0126 28       		.byte	0x28
 1447 0127 08       		.uleb128 0x8
 1448 0128 540B0000 		.4byte	.LASF33
 1449 012c 29       		.byte	0x29
 1450 012d 08       		.uleb128 0x8
 1451 012e A2000000 		.4byte	.LASF34
 1452 0132 2A       		.byte	0x2a
 1453 0133 08       		.uleb128 0x8
 1454 0134 F6020000 		.4byte	.LASF35
 1455 0138 2B       		.byte	0x2b
 1456 0139 08       		.uleb128 0x8
 1457 013a 800E0000 		.4byte	.LASF36
 1458 013e 2C       		.byte	0x2c
 1459 013f 08       		.uleb128 0x8
 1460 0140 49020000 		.4byte	.LASF37
 1461 0144 2D       		.byte	0x2d
 1462 0145 08       		.uleb128 0x8
 1463 0146 A20A0000 		.4byte	.LASF38
 1464 014a 2E       		.byte	0x2e
 1465 014b 08       		.uleb128 0x8
 1466 014c EC000000 		.4byte	.LASF39
 1467 0150 2F       		.byte	0x2f
 1468 0151 08       		.uleb128 0x8
 1469 0152 5F090000 		.4byte	.LASF40
 1470 0156 30       		.byte	0x30
 1471 0157 08       		.uleb128 0x8
 1472 0158 D30E0000 		.4byte	.LASF41
 1473 015c 31       		.byte	0x31
 1474 015d 08       		.uleb128 0x8
 1475 015e 3E090000 		.4byte	.LASF42
 1476 0162 32       		.byte	0x32
 1477 0163 08       		.uleb128 0x8
 1478 0164 AC0B0000 		.4byte	.LASF43
 1479 0168 33       		.byte	0x33
 1480 0169 08       		.uleb128 0x8
 1481 016a 1E050000 		.4byte	.LASF44
 1482 016e 34       		.byte	0x34
 1483 016f 08       		.uleb128 0x8
 1484 0170 270C0000 		.4byte	.LASF45
 1485 0174 35       		.byte	0x35
 1486 0175 08       		.uleb128 0x8
 1487 0176 CD060000 		.4byte	.LASF46
 1488 017a 36       		.byte	0x36
 1489 017b 08       		.uleb128 0x8
 1490 017c 24080000 		.4byte	.LASF47
 1491 0180 37       		.byte	0x37
 1492 0181 08       		.uleb128 0x8
 1493 0182 920B0000 		.4byte	.LASF48
 1494 0186 40       		.byte	0x40
 1495 0187 08       		.uleb128 0x8
 1496 0188 A9070000 		.4byte	.LASF49
 1497 018c 41       		.byte	0x41
 1498 018d 08       		.uleb128 0x8
ARM GAS  C:\Users\Jack\AppData\Local\Temp\ccYWX8Tu.s 			page 43


 1499 018e 1F0F0000 		.4byte	.LASF50
 1500 0192 42       		.byte	0x42
 1501 0193 08       		.uleb128 0x8
 1502 0194 B00D0000 		.4byte	.LASF51
 1503 0198 43       		.byte	0x43
 1504 0199 08       		.uleb128 0x8
 1505 019a 6E050000 		.4byte	.LASF52
 1506 019e 44       		.byte	0x44
 1507 019f 08       		.uleb128 0x8
 1508 01a0 53010000 		.4byte	.LASF53
 1509 01a4 45       		.byte	0x45
 1510 01a5 08       		.uleb128 0x8
 1511 01a6 EE060000 		.4byte	.LASF54
 1512 01aa 46       		.byte	0x46
 1513 01ab 08       		.uleb128 0x8
 1514 01ac 4A060000 		.4byte	.LASF55
 1515 01b0 47       		.byte	0x47
 1516 01b1 08       		.uleb128 0x8
 1517 01b2 590E0000 		.4byte	.LASF56
 1518 01b6 48       		.byte	0x48
 1519 01b7 08       		.uleb128 0x8
 1520 01b8 36030000 		.4byte	.LASF57
 1521 01bc 49       		.byte	0x49
 1522 01bd 08       		.uleb128 0x8
 1523 01be 250E0000 		.4byte	.LASF58
 1524 01c2 4A       		.byte	0x4a
 1525 01c3 08       		.uleb128 0x8
 1526 01c4 15010000 		.4byte	.LASF59
 1527 01c8 4B       		.byte	0x4b
 1528 01c9 08       		.uleb128 0x8
 1529 01ca 54050000 		.4byte	.LASF60
 1530 01ce 4C       		.byte	0x4c
 1531 01cf 08       		.uleb128 0x8
 1532 01d0 24090000 		.4byte	.LASF61
 1533 01d4 4D       		.byte	0x4d
 1534 01d5 08       		.uleb128 0x8
 1535 01d6 65030000 		.4byte	.LASF62
 1536 01da 4E       		.byte	0x4e
 1537 01db 08       		.uleb128 0x8
 1538 01dc 350B0000 		.4byte	.LASF63
 1539 01e0 4F       		.byte	0x4f
 1540 01e1 08       		.uleb128 0x8
 1541 01e2 34010000 		.4byte	.LASF64
 1542 01e6 50       		.byte	0x50
 1543 01e7 08       		.uleb128 0x8
 1544 01e8 F3030000 		.4byte	.LASF65
 1545 01ec 51       		.byte	0x51
 1546 01ed 08       		.uleb128 0x8
 1547 01ee D5090000 		.4byte	.LASF66
 1548 01f2 52       		.byte	0x52
 1549 01f3 08       		.uleb128 0x8
 1550 01f4 E30A0000 		.4byte	.LASF67
 1551 01f8 53       		.byte	0x53
 1552 01f9 08       		.uleb128 0x8
 1553 01fa 710B0000 		.4byte	.LASF68
 1554 01fe 54       		.byte	0x54
 1555 01ff 08       		.uleb128 0x8
ARM GAS  C:\Users\Jack\AppData\Local\Temp\ccYWX8Tu.s 			page 44


 1556 0200 8C050000 		.4byte	.LASF69
 1557 0204 55       		.byte	0x55
 1558 0205 08       		.uleb128 0x8
 1559 0206 BE040000 		.4byte	.LASF70
 1560 020a 56       		.byte	0x56
 1561 020b 08       		.uleb128 0x8
 1562 020c 660C0000 		.4byte	.LASF71
 1563 0210 57       		.byte	0x57
 1564 0211 08       		.uleb128 0x8
 1565 0212 CF050000 		.4byte	.LASF72
 1566 0216 58       		.byte	0x58
 1567 0217 08       		.uleb128 0x8
 1568 0218 23020000 		.4byte	.LASF73
 1569 021c 70       		.byte	0x70
 1570 021d 08       		.uleb128 0x8
 1571 021e AD0E0000 		.4byte	.LASF74
 1572 0222 71       		.byte	0x71
 1573 0223 08       		.uleb128 0x8
 1574 0224 CA070000 		.4byte	.LASF75
 1575 0228 72       		.byte	0x72
 1576 0229 08       		.uleb128 0x8
 1577 022a 59080000 		.4byte	.LASF76
 1578 022e 73       		.byte	0x73
 1579 022f 08       		.uleb128 0x8
 1580 0230 150A0000 		.4byte	.LASF77
 1581 0234 74       		.byte	0x74
 1582 0235 08       		.uleb128 0x8
 1583 0236 19040000 		.4byte	.LASF78
 1584 023a 75       		.byte	0x75
 1585 023b 08       		.uleb128 0x8
 1586 023c CB000000 		.4byte	.LASF79
 1587 0240 76       		.byte	0x76
 1588 0241 08       		.uleb128 0x8
 1589 0242 53000000 		.4byte	.LASF80
 1590 0246 77       		.byte	0x77
 1591 0247 08       		.uleb128 0x8
 1592 0248 00000000 		.4byte	.LASF81
 1593 024c 78       		.byte	0x78
 1594 024d 08       		.uleb128 0x8
 1595 024e C10C0000 		.4byte	.LASF82
 1596 0252 79       		.byte	0x79
 1597 0253 08       		.uleb128 0x8
 1598 0254 7E040000 		.4byte	.LASF83
 1599 0258 7A       		.byte	0x7a
 1600 0259 08       		.uleb128 0x8
 1601 025a F2010000 		.4byte	.LASF84
 1602 025e FA       		.byte	0xfa
 1603 025f 08       		.uleb128 0x8
 1604 0260 ED040000 		.4byte	.LASF85
 1605 0264 FB       		.byte	0xfb
 1606 0265 08       		.uleb128 0x8
 1607 0266 110B0000 		.4byte	.LASF86
 1608 026a FC       		.byte	0xfc
 1609 026b 08       		.uleb128 0x8
 1610 026c 000C0000 		.4byte	.LASF87
 1611 0270 FD       		.byte	0xfd
 1612 0271 08       		.uleb128 0x8
ARM GAS  C:\Users\Jack\AppData\Local\Temp\ccYWX8Tu.s 			page 45


 1613 0272 65040000 		.4byte	.LASF88
 1614 0276 FF       		.byte	0xff
 1615 0277 00       		.byte	0
 1616 0278 09       		.uleb128 0x9
 1617 0279 08       		.byte	0x8
 1618 027a 03       		.byte	0x3
 1619 027b 5403     		.2byte	0x354
 1620 027d B6020000 		.4byte	0x2b6
 1621 0281 0A       		.uleb128 0xa
 1622 0282 330A0000 		.4byte	.LASF89
 1623 0286 03       		.byte	0x3
 1624 0287 5B03     		.2byte	0x35b
 1625 0289 77000000 		.4byte	0x77
 1626 028d 00       		.byte	0
 1627 028e 0A       		.uleb128 0xa
 1628 028f BF090000 		.4byte	.LASF90
 1629 0293 03       		.byte	0x3
 1630 0294 6203     		.2byte	0x362
 1631 0296 77000000 		.4byte	0x77
 1632 029a 02       		.byte	0x2
 1633 029b 0A       		.uleb128 0xa
 1634 029c 18080000 		.4byte	.LASF91
 1635 02a0 03       		.byte	0x3
 1636 02a1 6703     		.2byte	0x367
 1637 02a3 77000000 		.4byte	0x77
 1638 02a7 04       		.byte	0x4
 1639 02a8 0A       		.uleb128 0xa
 1640 02a9 F2050000 		.4byte	.LASF92
 1641 02ad 03       		.byte	0x3
 1642 02ae 6D03     		.2byte	0x36d
 1643 02b0 77000000 		.4byte	0x77
 1644 02b4 06       		.byte	0x6
 1645 02b5 00       		.byte	0
 1646 02b6 04       		.uleb128 0x4
 1647 02b7 36050000 		.4byte	.LASF93
 1648 02bb 03       		.byte	0x3
 1649 02bc 6F03     		.2byte	0x36f
 1650 02be 78020000 		.4byte	0x278
 1651 02c2 04       		.uleb128 0x4
 1652 02c3 F70E0000 		.4byte	.LASF94
 1653 02c7 04       		.byte	0x4
 1654 02c8 8901     		.2byte	0x189
 1655 02ca 77000000 		.4byte	0x77
 1656 02ce 09       		.uleb128 0x9
 1657 02cf 02       		.byte	0x2
 1658 02d0 04       		.byte	0x4
 1659 02d1 9301     		.2byte	0x193
 1660 02d3 F2020000 		.4byte	0x2f2
 1661 02d7 0A       		.uleb128 0xa
 1662 02d8 A40E0000 		.4byte	.LASF95
 1663 02dc 04       		.byte	0x4
 1664 02dd 9A01     		.2byte	0x19a
 1665 02df 6B000000 		.4byte	0x6b
 1666 02e3 00       		.byte	0
 1667 02e4 0A       		.uleb128 0xa
 1668 02e5 C4070000 		.4byte	.LASF96
 1669 02e9 04       		.byte	0x4
ARM GAS  C:\Users\Jack\AppData\Local\Temp\ccYWX8Tu.s 			page 46


 1670 02ea A001     		.2byte	0x1a0
 1671 02ec 6B000000 		.4byte	0x6b
 1672 02f0 01       		.byte	0x1
 1673 02f1 00       		.byte	0
 1674 02f2 04       		.uleb128 0x4
 1675 02f3 72000000 		.4byte	.LASF97
 1676 02f7 04       		.byte	0x4
 1677 02f8 A201     		.2byte	0x1a2
 1678 02fa CE020000 		.4byte	0x2ce
 1679 02fe 09       		.uleb128 0x9
 1680 02ff 08       		.byte	0x8
 1681 0300 04       		.byte	0x4
 1682 0301 BE01     		.2byte	0x1be
 1683 0303 2F030000 		.4byte	0x32f
 1684 0307 0B       		.uleb128 0xb
 1685 0308 76616C00 		.ascii	"val\000"
 1686 030c 04       		.byte	0x4
 1687 030d C101     		.2byte	0x1c1
 1688 030f B4000000 		.4byte	0xb4
 1689 0313 00       		.byte	0
 1690 0314 0B       		.uleb128 0xb
 1691 0315 6C656E00 		.ascii	"len\000"
 1692 0319 04       		.byte	0x4
 1693 031a C401     		.2byte	0x1c4
 1694 031c 77000000 		.4byte	0x77
 1695 0320 04       		.byte	0x4
 1696 0321 0A       		.uleb128 0xa
 1697 0322 15030000 		.4byte	.LASF98
 1698 0326 04       		.byte	0x4
 1699 0327 CB01     		.2byte	0x1cb
 1700 0329 77000000 		.4byte	0x77
 1701 032d 06       		.byte	0x6
 1702 032e 00       		.byte	0
 1703 032f 04       		.uleb128 0x4
 1704 0330 CA010000 		.4byte	.LASF99
 1705 0334 04       		.byte	0x4
 1706 0335 CD01     		.2byte	0x1cd
 1707 0337 FE020000 		.4byte	0x2fe
 1708 033b 09       		.uleb128 0x9
 1709 033c 0C       		.byte	0xc
 1710 033d 04       		.byte	0x4
 1711 033e D001     		.2byte	0x1d0
 1712 0340 5F030000 		.4byte	0x35f
 1713 0344 0A       		.uleb128 0xa
 1714 0345 AD040000 		.4byte	.LASF100
 1715 0349 04       		.byte	0x4
 1716 034a D301     		.2byte	0x1d3
 1717 034c 2F030000 		.4byte	0x32f
 1718 0350 00       		.byte	0
 1719 0351 0A       		.uleb128 0xa
 1720 0352 A2040000 		.4byte	.LASF101
 1721 0356 04       		.byte	0x4
 1722 0357 D601     		.2byte	0x1d6
 1723 0359 C2020000 		.4byte	0x2c2
 1724 035d 08       		.byte	0x8
 1725 035e 00       		.byte	0
 1726 035f 04       		.uleb128 0x4
ARM GAS  C:\Users\Jack\AppData\Local\Temp\ccYWX8Tu.s 			page 47


 1727 0360 F6090000 		.4byte	.LASF102
 1728 0364 04       		.byte	0x4
 1729 0365 D801     		.2byte	0x1d8
 1730 0367 3B030000 		.4byte	0x33b
 1731 036b 0C       		.uleb128 0xc
 1732 036c BC080000 		.4byte	.LASF103
 1733 0370 05       		.byte	0x5
 1734 0371 34       		.byte	0x34
 1735 0372 5F030000 		.4byte	0x35f
 1736 0376 0D       		.uleb128 0xd
 1737 0377 10       		.byte	0x10
 1738 0378 05       		.byte	0x5
 1739 0379 8A       		.byte	0x8a
 1740 037a 97030000 		.4byte	0x397
 1741 037e 0E       		.uleb128 0xe
 1742 037f 86000000 		.4byte	.LASF104
 1743 0383 05       		.byte	0x5
 1744 0384 8D       		.byte	0x8d
 1745 0385 F2020000 		.4byte	0x2f2
 1746 0389 00       		.byte	0
 1747 038a 0E       		.uleb128 0xe
 1748 038b 0A080000 		.4byte	.LASF105
 1749 038f 05       		.byte	0x5
 1750 0390 90       		.byte	0x90
 1751 0391 5F030000 		.4byte	0x35f
 1752 0395 04       		.byte	0x4
 1753 0396 00       		.byte	0
 1754 0397 0C       		.uleb128 0xc
 1755 0398 9E080000 		.4byte	.LASF106
 1756 039c 05       		.byte	0x5
 1757 039d 92       		.byte	0x92
 1758 039e 76030000 		.4byte	0x376
 1759 03a2 07       		.uleb128 0x7
 1760 03a3 01       		.byte	0x1
 1761 03a4 2C000000 		.4byte	0x2c
 1762 03a8 07       		.byte	0x7
 1763 03a9 5A08     		.2byte	0x85a
 1764 03ab CE030000 		.4byte	0x3ce
 1765 03af 08       		.uleb128 0x8
 1766 03b0 3F000000 		.4byte	.LASF107
 1767 03b4 00       		.byte	0
 1768 03b5 08       		.uleb128 0x8
 1769 03b6 DB080000 		.4byte	.LASF108
 1770 03ba 01       		.byte	0x1
 1771 03bb 08       		.uleb128 0x8
 1772 03bc 430E0000 		.4byte	.LASF109
 1773 03c0 02       		.byte	0x2
 1774 03c1 08       		.uleb128 0x8
 1775 03c2 8D020000 		.4byte	.LASF110
 1776 03c6 03       		.byte	0x3
 1777 03c7 08       		.uleb128 0x8
 1778 03c8 AC030000 		.4byte	.LASF111
 1779 03cc 04       		.byte	0x4
 1780 03cd 00       		.byte	0
 1781 03ce 04       		.uleb128 0x4
 1782 03cf E60D0000 		.4byte	.LASF112
 1783 03d3 07       		.byte	0x7
ARM GAS  C:\Users\Jack\AppData\Local\Temp\ccYWX8Tu.s 			page 48


 1784 03d4 6808     		.2byte	0x868
 1785 03d6 A2030000 		.4byte	0x3a2
 1786 03da 0F       		.uleb128 0xf
 1787 03db 80090000 		.4byte	.LASF115
 1788 03df 01       		.byte	0x1
 1789 03e0 88       		.byte	0x88
 1790 03e1 00000000 		.4byte	.LFB35
 1791 03e5 88020000 		.4byte	.LFE35-.LFB35
 1792 03e9 01       		.uleb128 0x1
 1793 03ea 9C       		.byte	0x9c
 1794 03eb 1A040000 		.4byte	0x41a
 1795 03ef 10       		.uleb128 0x10
 1796 03f0 1A060000 		.4byte	.LASF113
 1797 03f4 01       		.byte	0x1
 1798 03f5 88       		.byte	0x88
 1799 03f6 83000000 		.4byte	0x83
 1800 03fa 02       		.uleb128 0x2
 1801 03fb 91       		.byte	0x91
 1802 03fc 6C       		.sleb128 -20
 1803 03fd 10       		.uleb128 0x10
 1804 03fe CE0D0000 		.4byte	.LASF114
 1805 0402 01       		.byte	0x1
 1806 0403 88       		.byte	0x88
 1807 0404 B2000000 		.4byte	0xb2
 1808 0408 02       		.uleb128 0x2
 1809 0409 91       		.byte	0x91
 1810 040a 68       		.sleb128 -24
 1811 040b 11       		.uleb128 0x11
 1812 040c 73040000 		.4byte	.LASF118
 1813 0410 01       		.byte	0x1
 1814 0411 8C       		.byte	0x8c
 1815 0412 1A040000 		.4byte	0x41a
 1816 0416 02       		.uleb128 0x2
 1817 0417 91       		.byte	0x91
 1818 0418 74       		.sleb128 -12
 1819 0419 00       		.byte	0
 1820 041a 06       		.uleb128 0x6
 1821 041b 04       		.byte	0x4
 1822 041c 97030000 		.4byte	0x397
 1823 0420 12       		.uleb128 0x12
 1824 0421 D30B0000 		.4byte	.LASF116
 1825 0425 01       		.byte	0x1
 1826 0426 7101     		.2byte	0x171
 1827 0428 00000000 		.4byte	.LFB36
 1828 042c 5C000000 		.4byte	.LFE36-.LFB36
 1829 0430 01       		.uleb128 0x1
 1830 0431 9C       		.byte	0x9c
 1831 0432 55040000 		.4byte	0x455
 1832 0436 13       		.uleb128 0x13
 1833 0437 C60A0000 		.4byte	.LASF117
 1834 043b 01       		.byte	0x1
 1835 043c 7101     		.2byte	0x171
 1836 043e 6B000000 		.4byte	0x6b
 1837 0442 02       		.uleb128 0x2
 1838 0443 91       		.byte	0x91
 1839 0444 67       		.sleb128 -25
 1840 0445 14       		.uleb128 0x14
ARM GAS  C:\Users\Jack\AppData\Local\Temp\ccYWX8Tu.s 			page 49


 1841 0446 72020000 		.4byte	.LASF119
 1842 044a 01       		.byte	0x1
 1843 044b 7401     		.2byte	0x174
 1844 044d 6B030000 		.4byte	0x36b
 1845 0451 02       		.uleb128 0x2
 1846 0452 91       		.byte	0x91
 1847 0453 6C       		.sleb128 -20
 1848 0454 00       		.byte	0
 1849 0455 12       		.uleb128 0x12
 1850 0456 500A0000 		.4byte	.LASF120
 1851 045a 01       		.byte	0x1
 1852 045b 9301     		.2byte	0x193
 1853 045d 00000000 		.4byte	.LFB37
 1854 0461 64000000 		.4byte	.LFE37-.LFB37
 1855 0465 01       		.uleb128 0x1
 1856 0466 9C       		.byte	0x9c
 1857 0467 99040000 		.4byte	0x499
 1858 046b 13       		.uleb128 0x13
 1859 046c EB020000 		.4byte	.LASF121
 1860 0470 01       		.byte	0x1
 1861 0471 9301     		.2byte	0x193
 1862 0473 B4000000 		.4byte	0xb4
 1863 0477 02       		.uleb128 0x2
 1864 0478 91       		.byte	0x91
 1865 0479 64       		.sleb128 -28
 1866 047a 15       		.uleb128 0x15
 1867 047b 6C656E00 		.ascii	"len\000"
 1868 047f 01       		.byte	0x1
 1869 0480 9301     		.2byte	0x193
 1870 0482 6B000000 		.4byte	0x6b
 1871 0486 02       		.uleb128 0x2
 1872 0487 91       		.byte	0x91
 1873 0488 63       		.sleb128 -29
 1874 0489 14       		.uleb128 0x14
 1875 048a 83030000 		.4byte	.LASF122
 1876 048e 01       		.byte	0x1
 1877 048f 9601     		.2byte	0x196
 1878 0491 6B030000 		.4byte	0x36b
 1879 0495 02       		.uleb128 0x2
 1880 0496 91       		.byte	0x91
 1881 0497 6C       		.sleb128 -20
 1882 0498 00       		.byte	0
 1883 0499 16       		.uleb128 0x16
 1884 049a 0E090000 		.4byte	.LASF132
 1885 049e 01       		.byte	0x1
 1886 049f B301     		.2byte	0x1b3
 1887 04a1 00000000 		.4byte	.LFB38
 1888 04a5 40000000 		.4byte	.LFE38-.LFB38
 1889 04a9 01       		.uleb128 0x1
 1890 04aa 9C       		.byte	0x9c
 1891 04ab 12       		.uleb128 0x12
 1892 04ac D90D0000 		.4byte	.LASF123
 1893 04b0 01       		.byte	0x1
 1894 04b1 D001     		.2byte	0x1d0
 1895 04b3 00000000 		.4byte	.LFB39
 1896 04b7 38010000 		.4byte	.LFE39-.LFB39
 1897 04bb 01       		.uleb128 0x1
ARM GAS  C:\Users\Jack\AppData\Local\Temp\ccYWX8Tu.s 			page 50


 1898 04bc 9C       		.byte	0x9c
 1899 04bd FE040000 		.4byte	0x4fe
 1900 04c1 14       		.uleb128 0x14
 1901 04c2 180C0000 		.4byte	.LASF124
 1902 04c6 01       		.byte	0x1
 1903 04c7 D301     		.2byte	0x1d3
 1904 04c9 6B000000 		.4byte	0x6b
 1905 04cd 02       		.uleb128 0x2
 1906 04ce 91       		.byte	0x91
 1907 04cf 76       		.sleb128 -10
 1908 04d0 14       		.uleb128 0x14
 1909 04d1 E40C0000 		.4byte	.LASF125
 1910 04d5 01       		.byte	0x1
 1911 04d6 D401     		.2byte	0x1d4
 1912 04d8 6B000000 		.4byte	0x6b
 1913 04dc 02       		.uleb128 0x2
 1914 04dd 91       		.byte	0x91
 1915 04de 75       		.sleb128 -11
 1916 04df 14       		.uleb128 0x14
 1917 04e0 7A010000 		.4byte	.LASF126
 1918 04e4 01       		.byte	0x1
 1919 04e5 D501     		.2byte	0x1d5
 1920 04e7 6B000000 		.4byte	0x6b
 1921 04eb 02       		.uleb128 0x2
 1922 04ec 91       		.byte	0x91
 1923 04ed 74       		.sleb128 -12
 1924 04ee 14       		.uleb128 0x14
 1925 04ef 68060000 		.4byte	.LASF127
 1926 04f3 01       		.byte	0x1
 1927 04f4 D601     		.2byte	0x1d6
 1928 04f6 6B000000 		.4byte	0x6b
 1929 04fa 02       		.uleb128 0x2
 1930 04fb 91       		.byte	0x91
 1931 04fc 77       		.sleb128 -9
 1932 04fd 00       		.byte	0
 1933 04fe 12       		.uleb128 0x12
 1934 04ff 9C030000 		.4byte	.LASF128
 1935 0503 01       		.byte	0x1
 1936 0504 2D02     		.2byte	0x22d
 1937 0506 00000000 		.4byte	.LFB40
 1938 050a 00010000 		.4byte	.LFE40-.LFB40
 1939 050e 01       		.uleb128 0x1
 1940 050f 9C       		.byte	0x9c
 1941 0510 48050000 		.4byte	0x548
 1942 0514 14       		.uleb128 0x14
 1943 0515 130F0000 		.4byte	.LASF129
 1944 0519 01       		.byte	0x1
 1945 051a 3102     		.2byte	0x231
 1946 051c 83000000 		.4byte	0x83
 1947 0520 05       		.uleb128 0x5
 1948 0521 03       		.byte	0x3
 1949 0522 10000000 		.4byte	led_counter.7650
 1950 0526 14       		.uleb128 0x14
 1951 0527 5F030000 		.4byte	.LASF130
 1952 052b 01       		.byte	0x1
 1953 052c 3402     		.2byte	0x234
 1954 052e 6B000000 		.4byte	0x6b
ARM GAS  C:\Users\Jack\AppData\Local\Temp\ccYWX8Tu.s 			page 51


 1955 0532 05       		.uleb128 0x5
 1956 0533 03       		.byte	0x3
 1957 0534 0D000000 		.4byte	state.7651
 1958 0538 14       		.uleb128 0x14
 1959 0539 7F0A0000 		.4byte	.LASF131
 1960 053d 01       		.byte	0x1
 1961 053e 3702     		.2byte	0x237
 1962 0540 6B000000 		.4byte	0x6b
 1963 0544 02       		.uleb128 0x2
 1964 0545 91       		.byte	0x91
 1965 0546 77       		.sleb128 -9
 1966 0547 00       		.byte	0
 1967 0548 16       		.uleb128 0x16
 1968 0549 6F0A0000 		.4byte	.LASF133
 1969 054d 01       		.byte	0x1
 1970 054e A002     		.2byte	0x2a0
 1971 0550 00000000 		.4byte	.LFB41
 1972 0554 C0000000 		.4byte	.LFE41-.LFB41
 1973 0558 01       		.uleb128 0x1
 1974 0559 9C       		.byte	0x9c
 1975 055a 16       		.uleb128 0x16
 1976 055b 10020000 		.4byte	.LASF134
 1977 055f 01       		.byte	0x1
 1978 0560 0103     		.2byte	0x301
 1979 0562 00000000 		.4byte	.LFB42
 1980 0566 42000000 		.4byte	.LFE42-.LFB42
 1981 056a 01       		.uleb128 0x1
 1982 056b 9C       		.byte	0x9c
 1983 056c 11       		.uleb128 0x11
 1984 056d F40D0000 		.4byte	.LASF135
 1985 0571 01       		.byte	0x1
 1986 0572 4E       		.byte	0x4e
 1987 0573 6B000000 		.4byte	0x6b
 1988 0577 05       		.uleb128 0x5
 1989 0578 03       		.byte	0x3
 1990 0579 00000000 		.4byte	isConnectionUpdateRequested
 1991 057d 11       		.uleb128 0x11
 1992 057e 4F030000 		.4byte	.LASF136
 1993 0582 01       		.byte	0x1
 1994 0583 53       		.byte	0x53
 1995 0584 B6020000 		.4byte	0x2b6
 1996 0588 05       		.uleb128 0x5
 1997 0589 03       		.byte	0x3
 1998 058a 04000000 		.4byte	ConnectionParam
 1999 058e 17       		.uleb128 0x17
 2000 058f 0F070000 		.4byte	.LASF137
 2001 0593 07       		.byte	0x7
 2002 0594 B30A     		.2byte	0xab3
 2003 0596 CE030000 		.4byte	0x3ce
 2004 059a 18       		.uleb128 0x18
 2005 059b 91000000 		.4byte	.LASF138
 2006 059f 01       		.byte	0x1
 2007 05a0 2D       		.byte	0x2d
 2008 05a1 F2020000 		.4byte	0x2f2
 2009 05a5 05       		.uleb128 0x5
 2010 05a6 03       		.byte	0x3
 2011 05a7 00000000 		.4byte	connectionHandle
ARM GAS  C:\Users\Jack\AppData\Local\Temp\ccYWX8Tu.s 			page 52


 2012 05ab 18       		.uleb128 0x18
 2013 05ac CB090000 		.4byte	.LASF139
 2014 05b0 01       		.byte	0x1
 2015 05b1 30       		.byte	0x30
 2016 05b2 5F030000 		.4byte	0x35f
 2017 05b6 05       		.uleb128 0x5
 2018 05b7 03       		.byte	0x3
 2019 05b8 00000000 		.4byte	rgbHandle
 2020 05bc 18       		.uleb128 0x18
 2021 05bd 8F0C0000 		.4byte	.LASF140
 2022 05c1 01       		.byte	0x1
 2023 05c2 35       		.byte	0x35
 2024 05c3 6B000000 		.4byte	0x6b
 2025 05c7 05       		.uleb128 0x5
 2026 05c8 03       		.byte	0x3
 2027 05c9 00000000 		.4byte	sendCapSenseSliderNotifications
 2028 05cd 18       		.uleb128 0x18
 2029 05ce 81080000 		.4byte	.LASF141
 2030 05d2 01       		.byte	0x1
 2031 05d3 39       		.byte	0x39
 2032 05d4 6B000000 		.4byte	0x6b
 2033 05d8 05       		.uleb128 0x5
 2034 05d9 03       		.byte	0x3
 2035 05da 00000000 		.4byte	rgbledNotifications
 2036 05de 19       		.uleb128 0x19
 2037 05df 6B000000 		.4byte	0x6b
 2038 05e3 EE050000 		.4byte	0x5ee
 2039 05e7 1A       		.uleb128 0x1a
 2040 05e8 A4000000 		.4byte	0xa4
 2041 05ec 03       		.byte	0x3
 2042 05ed 00       		.byte	0
 2043 05ee 18       		.uleb128 0x18
 2044 05ef 7F060000 		.4byte	.LASF142
 2045 05f3 01       		.byte	0x1
 2046 05f4 3D       		.byte	0x3d
 2047 05f5 DE050000 		.4byte	0x5de
 2048 05f9 05       		.uleb128 0x5
 2049 05fa 03       		.byte	0x3
 2050 05fb 00000000 		.4byte	RGBledData
 2051 05ff 18       		.uleb128 0x18
 2052 0600 93090000 		.4byte	.LASF143
 2053 0604 01       		.byte	0x1
 2054 0605 42       		.byte	0x42
 2055 0606 6B000000 		.4byte	0x6b
 2056 060a 05       		.uleb128 0x5
 2057 060b 03       		.byte	0x3
 2058 060c 00000000 		.4byte	deviceConnected
 2059 0610 18       		.uleb128 0x18
 2060 0611 100E0000 		.4byte	.LASF144
 2061 0615 01       		.byte	0x1
 2062 0616 45       		.byte	0x45
 2063 0617 6B000000 		.4byte	0x6b
 2064 061b 05       		.uleb128 0x5
 2065 061c 03       		.byte	0x3
 2066 061d 00000000 		.4byte	restartAdvertisement
 2067 0621 18       		.uleb128 0x18
 2068 0622 85010000 		.4byte	.LASF145
ARM GAS  C:\Users\Jack\AppData\Local\Temp\ccYWX8Tu.s 			page 53


 2069 0626 01       		.byte	0x1
 2070 0627 4A       		.byte	0x4a
 2071 0628 6B000000 		.4byte	0x6b
 2072 062c 05       		.uleb128 0x5
 2073 062d 03       		.byte	0x3
 2074 062e 00000000 		.4byte	enableCapSenseData
 2075 0632 18       		.uleb128 0x18
 2076 0633 3A040000 		.4byte	.LASF146
 2077 0637 01       		.byte	0x1
 2078 0638 5E       		.byte	0x5e
 2079 0639 6B000000 		.4byte	0x6b
 2080 063d 05       		.uleb128 0x5
 2081 063e 03       		.byte	0x3
 2082 063f 00000000 		.4byte	shut_down_led
 2083 0643 18       		.uleb128 0x18
 2084 0644 77080000 		.4byte	.LASF147
 2085 0648 01       		.byte	0x1
 2086 0649 61       		.byte	0x61
 2087 064a 6B000000 		.4byte	0x6b
 2088 064e 05       		.uleb128 0x5
 2089 064f 03       		.byte	0x3
 2090 0650 00000000 		.4byte	led_timer
 2091 0654 18       		.uleb128 0x18
 2092 0655 B3040000 		.4byte	.LASF148
 2093 0659 01       		.byte	0x1
 2094 065a 64       		.byte	0x64
 2095 065b 6B000000 		.4byte	0x6b
 2096 065f 05       		.uleb128 0x5
 2097 0660 03       		.byte	0x3
 2098 0661 00000000 		.4byte	timer_tick
 2099 0665 18       		.uleb128 0x18
 2100 0666 4F040000 		.4byte	.LASF149
 2101 066a 01       		.byte	0x1
 2102 066b 67       		.byte	0x67
 2103 066c 6B000000 		.4byte	0x6b
 2104 0670 05       		.uleb128 0x5
 2105 0671 03       		.byte	0x3
 2106 0672 00000000 		.4byte	switch_off_status_led
 2107 0676 18       		.uleb128 0x18
 2108 0677 450A0000 		.4byte	.LASF150
 2109 067b 01       		.byte	0x1
 2110 067c 6B       		.byte	0x6b
 2111 067d 6B000000 		.4byte	0x6b
 2112 0681 05       		.uleb128 0x5
 2113 0682 03       		.byte	0x3
 2114 0683 00000000 		.4byte	busyStatus
 2115 0687 19       		.uleb128 0x19
 2116 0688 6B000000 		.4byte	0x6b
 2117 068c 97060000 		.4byte	0x697
 2118 0690 1A       		.uleb128 0x1a
 2119 0691 A4000000 		.4byte	0xa4
 2120 0695 01       		.byte	0x1
 2121 0696 00       		.byte	0
 2122 0697 18       		.uleb128 0x18
 2123 0698 230B0000 		.4byte	.LASF151
 2124 069c 01       		.byte	0x1
 2125 069d 6E       		.byte	0x6e
ARM GAS  C:\Users\Jack\AppData\Local\Temp\ccYWX8Tu.s 			page 54


 2126 069e 87060000 		.4byte	0x687
 2127 06a2 05       		.uleb128 0x5
 2128 06a3 03       		.byte	0x3
 2129 06a4 00000000 		.4byte	CapSenseCCCDvalue
 2130 06a8 18       		.uleb128 0x18
 2131 06a9 040B0000 		.4byte	.LASF152
 2132 06ad 01       		.byte	0x1
 2133 06ae 6F       		.byte	0x6f
 2134 06af 87060000 		.4byte	0x687
 2135 06b3 05       		.uleb128 0x5
 2136 06b4 03       		.byte	0x3
 2137 06b5 00000000 		.4byte	RGBCCCDvalue
 2138 06b9 18       		.uleb128 0x18
 2139 06ba B0050000 		.4byte	.LASF153
 2140 06be 01       		.byte	0x1
 2141 06bf 72       		.byte	0x72
 2142 06c0 5F030000 		.4byte	0x35f
 2143 06c4 05       		.uleb128 0x5
 2144 06c5 03       		.byte	0x3
 2145 06c6 00000000 		.4byte	CapSenseNotificationCCCDhandle
 2146 06ca 18       		.uleb128 0x18
 2147 06cb 00060000 		.4byte	.LASF154
 2148 06cf 01       		.byte	0x1
 2149 06d0 75       		.byte	0x75
 2150 06d1 5F030000 		.4byte	0x35f
 2151 06d5 05       		.uleb128 0x5
 2152 06d6 03       		.byte	0x3
 2153 06d7 00000000 		.4byte	RGBNotificationCCCDhandle
 2154 06db 00       		.byte	0
 2155              		.section	.debug_abbrev,"",%progbits
 2156              	.Ldebug_abbrev0:
 2157 0000 01       		.uleb128 0x1
 2158 0001 11       		.uleb128 0x11
 2159 0002 01       		.byte	0x1
 2160 0003 25       		.uleb128 0x25
 2161 0004 0E       		.uleb128 0xe
 2162 0005 13       		.uleb128 0x13
 2163 0006 0B       		.uleb128 0xb
 2164 0007 03       		.uleb128 0x3
 2165 0008 0E       		.uleb128 0xe
 2166 0009 1B       		.uleb128 0x1b
 2167 000a 0E       		.uleb128 0xe
 2168 000b 55       		.uleb128 0x55
 2169 000c 17       		.uleb128 0x17
 2170 000d 11       		.uleb128 0x11
 2171 000e 01       		.uleb128 0x1
 2172 000f 10       		.uleb128 0x10
 2173 0010 17       		.uleb128 0x17
 2174 0011 00       		.byte	0
 2175 0012 00       		.byte	0
 2176 0013 02       		.uleb128 0x2
 2177 0014 24       		.uleb128 0x24
 2178 0015 00       		.byte	0
 2179 0016 0B       		.uleb128 0xb
 2180 0017 0B       		.uleb128 0xb
 2181 0018 3E       		.uleb128 0x3e
 2182 0019 0B       		.uleb128 0xb
ARM GAS  C:\Users\Jack\AppData\Local\Temp\ccYWX8Tu.s 			page 55


 2183 001a 03       		.uleb128 0x3
 2184 001b 0E       		.uleb128 0xe
 2185 001c 00       		.byte	0
 2186 001d 00       		.byte	0
 2187 001e 03       		.uleb128 0x3
 2188 001f 24       		.uleb128 0x24
 2189 0020 00       		.byte	0
 2190 0021 0B       		.uleb128 0xb
 2191 0022 0B       		.uleb128 0xb
 2192 0023 3E       		.uleb128 0x3e
 2193 0024 0B       		.uleb128 0xb
 2194 0025 03       		.uleb128 0x3
 2195 0026 08       		.uleb128 0x8
 2196 0027 00       		.byte	0
 2197 0028 00       		.byte	0
 2198 0029 04       		.uleb128 0x4
 2199 002a 16       		.uleb128 0x16
 2200 002b 00       		.byte	0
 2201 002c 03       		.uleb128 0x3
 2202 002d 0E       		.uleb128 0xe
 2203 002e 3A       		.uleb128 0x3a
 2204 002f 0B       		.uleb128 0xb
 2205 0030 3B       		.uleb128 0x3b
 2206 0031 05       		.uleb128 0x5
 2207 0032 49       		.uleb128 0x49
 2208 0033 13       		.uleb128 0x13
 2209 0034 00       		.byte	0
 2210 0035 00       		.byte	0
 2211 0036 05       		.uleb128 0x5
 2212 0037 0F       		.uleb128 0xf
 2213 0038 00       		.byte	0
 2214 0039 0B       		.uleb128 0xb
 2215 003a 0B       		.uleb128 0xb
 2216 003b 00       		.byte	0
 2217 003c 00       		.byte	0
 2218 003d 06       		.uleb128 0x6
 2219 003e 0F       		.uleb128 0xf
 2220 003f 00       		.byte	0
 2221 0040 0B       		.uleb128 0xb
 2222 0041 0B       		.uleb128 0xb
 2223 0042 49       		.uleb128 0x49
 2224 0043 13       		.uleb128 0x13
 2225 0044 00       		.byte	0
 2226 0045 00       		.byte	0
 2227 0046 07       		.uleb128 0x7
 2228 0047 04       		.uleb128 0x4
 2229 0048 01       		.byte	0x1
 2230 0049 0B       		.uleb128 0xb
 2231 004a 0B       		.uleb128 0xb
 2232 004b 49       		.uleb128 0x49
 2233 004c 13       		.uleb128 0x13
 2234 004d 3A       		.uleb128 0x3a
 2235 004e 0B       		.uleb128 0xb
 2236 004f 3B       		.uleb128 0x3b
 2237 0050 05       		.uleb128 0x5
 2238 0051 01       		.uleb128 0x1
 2239 0052 13       		.uleb128 0x13
ARM GAS  C:\Users\Jack\AppData\Local\Temp\ccYWX8Tu.s 			page 56


 2240 0053 00       		.byte	0
 2241 0054 00       		.byte	0
 2242 0055 08       		.uleb128 0x8
 2243 0056 28       		.uleb128 0x28
 2244 0057 00       		.byte	0
 2245 0058 03       		.uleb128 0x3
 2246 0059 0E       		.uleb128 0xe
 2247 005a 1C       		.uleb128 0x1c
 2248 005b 0B       		.uleb128 0xb
 2249 005c 00       		.byte	0
 2250 005d 00       		.byte	0
 2251 005e 09       		.uleb128 0x9
 2252 005f 13       		.uleb128 0x13
 2253 0060 01       		.byte	0x1
 2254 0061 0B       		.uleb128 0xb
 2255 0062 0B       		.uleb128 0xb
 2256 0063 3A       		.uleb128 0x3a
 2257 0064 0B       		.uleb128 0xb
 2258 0065 3B       		.uleb128 0x3b
 2259 0066 05       		.uleb128 0x5
 2260 0067 01       		.uleb128 0x1
 2261 0068 13       		.uleb128 0x13
 2262 0069 00       		.byte	0
 2263 006a 00       		.byte	0
 2264 006b 0A       		.uleb128 0xa
 2265 006c 0D       		.uleb128 0xd
 2266 006d 00       		.byte	0
 2267 006e 03       		.uleb128 0x3
 2268 006f 0E       		.uleb128 0xe
 2269 0070 3A       		.uleb128 0x3a
 2270 0071 0B       		.uleb128 0xb
 2271 0072 3B       		.uleb128 0x3b
 2272 0073 05       		.uleb128 0x5
 2273 0074 49       		.uleb128 0x49
 2274 0075 13       		.uleb128 0x13
 2275 0076 38       		.uleb128 0x38
 2276 0077 0B       		.uleb128 0xb
 2277 0078 00       		.byte	0
 2278 0079 00       		.byte	0
 2279 007a 0B       		.uleb128 0xb
 2280 007b 0D       		.uleb128 0xd
 2281 007c 00       		.byte	0
 2282 007d 03       		.uleb128 0x3
 2283 007e 08       		.uleb128 0x8
 2284 007f 3A       		.uleb128 0x3a
 2285 0080 0B       		.uleb128 0xb
 2286 0081 3B       		.uleb128 0x3b
 2287 0082 05       		.uleb128 0x5
 2288 0083 49       		.uleb128 0x49
 2289 0084 13       		.uleb128 0x13
 2290 0085 38       		.uleb128 0x38
 2291 0086 0B       		.uleb128 0xb
 2292 0087 00       		.byte	0
 2293 0088 00       		.byte	0
 2294 0089 0C       		.uleb128 0xc
 2295 008a 16       		.uleb128 0x16
 2296 008b 00       		.byte	0
ARM GAS  C:\Users\Jack\AppData\Local\Temp\ccYWX8Tu.s 			page 57


 2297 008c 03       		.uleb128 0x3
 2298 008d 0E       		.uleb128 0xe
 2299 008e 3A       		.uleb128 0x3a
 2300 008f 0B       		.uleb128 0xb
 2301 0090 3B       		.uleb128 0x3b
 2302 0091 0B       		.uleb128 0xb
 2303 0092 49       		.uleb128 0x49
 2304 0093 13       		.uleb128 0x13
 2305 0094 00       		.byte	0
 2306 0095 00       		.byte	0
 2307 0096 0D       		.uleb128 0xd
 2308 0097 13       		.uleb128 0x13
 2309 0098 01       		.byte	0x1
 2310 0099 0B       		.uleb128 0xb
 2311 009a 0B       		.uleb128 0xb
 2312 009b 3A       		.uleb128 0x3a
 2313 009c 0B       		.uleb128 0xb
 2314 009d 3B       		.uleb128 0x3b
 2315 009e 0B       		.uleb128 0xb
 2316 009f 01       		.uleb128 0x1
 2317 00a0 13       		.uleb128 0x13
 2318 00a1 00       		.byte	0
 2319 00a2 00       		.byte	0
 2320 00a3 0E       		.uleb128 0xe
 2321 00a4 0D       		.uleb128 0xd
 2322 00a5 00       		.byte	0
 2323 00a6 03       		.uleb128 0x3
 2324 00a7 0E       		.uleb128 0xe
 2325 00a8 3A       		.uleb128 0x3a
 2326 00a9 0B       		.uleb128 0xb
 2327 00aa 3B       		.uleb128 0x3b
 2328 00ab 0B       		.uleb128 0xb
 2329 00ac 49       		.uleb128 0x49
 2330 00ad 13       		.uleb128 0x13
 2331 00ae 38       		.uleb128 0x38
 2332 00af 0B       		.uleb128 0xb
 2333 00b0 00       		.byte	0
 2334 00b1 00       		.byte	0
 2335 00b2 0F       		.uleb128 0xf
 2336 00b3 2E       		.uleb128 0x2e
 2337 00b4 01       		.byte	0x1
 2338 00b5 3F       		.uleb128 0x3f
 2339 00b6 19       		.uleb128 0x19
 2340 00b7 03       		.uleb128 0x3
 2341 00b8 0E       		.uleb128 0xe
 2342 00b9 3A       		.uleb128 0x3a
 2343 00ba 0B       		.uleb128 0xb
 2344 00bb 3B       		.uleb128 0x3b
 2345 00bc 0B       		.uleb128 0xb
 2346 00bd 27       		.uleb128 0x27
 2347 00be 19       		.uleb128 0x19
 2348 00bf 11       		.uleb128 0x11
 2349 00c0 01       		.uleb128 0x1
 2350 00c1 12       		.uleb128 0x12
 2351 00c2 06       		.uleb128 0x6
 2352 00c3 40       		.uleb128 0x40
 2353 00c4 18       		.uleb128 0x18
ARM GAS  C:\Users\Jack\AppData\Local\Temp\ccYWX8Tu.s 			page 58


 2354 00c5 9642     		.uleb128 0x2116
 2355 00c7 19       		.uleb128 0x19
 2356 00c8 01       		.uleb128 0x1
 2357 00c9 13       		.uleb128 0x13
 2358 00ca 00       		.byte	0
 2359 00cb 00       		.byte	0
 2360 00cc 10       		.uleb128 0x10
 2361 00cd 05       		.uleb128 0x5
 2362 00ce 00       		.byte	0
 2363 00cf 03       		.uleb128 0x3
 2364 00d0 0E       		.uleb128 0xe
 2365 00d1 3A       		.uleb128 0x3a
 2366 00d2 0B       		.uleb128 0xb
 2367 00d3 3B       		.uleb128 0x3b
 2368 00d4 0B       		.uleb128 0xb
 2369 00d5 49       		.uleb128 0x49
 2370 00d6 13       		.uleb128 0x13
 2371 00d7 02       		.uleb128 0x2
 2372 00d8 18       		.uleb128 0x18
 2373 00d9 00       		.byte	0
 2374 00da 00       		.byte	0
 2375 00db 11       		.uleb128 0x11
 2376 00dc 34       		.uleb128 0x34
 2377 00dd 00       		.byte	0
 2378 00de 03       		.uleb128 0x3
 2379 00df 0E       		.uleb128 0xe
 2380 00e0 3A       		.uleb128 0x3a
 2381 00e1 0B       		.uleb128 0xb
 2382 00e2 3B       		.uleb128 0x3b
 2383 00e3 0B       		.uleb128 0xb
 2384 00e4 49       		.uleb128 0x49
 2385 00e5 13       		.uleb128 0x13
 2386 00e6 02       		.uleb128 0x2
 2387 00e7 18       		.uleb128 0x18
 2388 00e8 00       		.byte	0
 2389 00e9 00       		.byte	0
 2390 00ea 12       		.uleb128 0x12
 2391 00eb 2E       		.uleb128 0x2e
 2392 00ec 01       		.byte	0x1
 2393 00ed 3F       		.uleb128 0x3f
 2394 00ee 19       		.uleb128 0x19
 2395 00ef 03       		.uleb128 0x3
 2396 00f0 0E       		.uleb128 0xe
 2397 00f1 3A       		.uleb128 0x3a
 2398 00f2 0B       		.uleb128 0xb
 2399 00f3 3B       		.uleb128 0x3b
 2400 00f4 05       		.uleb128 0x5
 2401 00f5 27       		.uleb128 0x27
 2402 00f6 19       		.uleb128 0x19
 2403 00f7 11       		.uleb128 0x11
 2404 00f8 01       		.uleb128 0x1
 2405 00f9 12       		.uleb128 0x12
 2406 00fa 06       		.uleb128 0x6
 2407 00fb 40       		.uleb128 0x40
 2408 00fc 18       		.uleb128 0x18
 2409 00fd 9642     		.uleb128 0x2116
 2410 00ff 19       		.uleb128 0x19
ARM GAS  C:\Users\Jack\AppData\Local\Temp\ccYWX8Tu.s 			page 59


 2411 0100 01       		.uleb128 0x1
 2412 0101 13       		.uleb128 0x13
 2413 0102 00       		.byte	0
 2414 0103 00       		.byte	0
 2415 0104 13       		.uleb128 0x13
 2416 0105 05       		.uleb128 0x5
 2417 0106 00       		.byte	0
 2418 0107 03       		.uleb128 0x3
 2419 0108 0E       		.uleb128 0xe
 2420 0109 3A       		.uleb128 0x3a
 2421 010a 0B       		.uleb128 0xb
 2422 010b 3B       		.uleb128 0x3b
 2423 010c 05       		.uleb128 0x5
 2424 010d 49       		.uleb128 0x49
 2425 010e 13       		.uleb128 0x13
 2426 010f 02       		.uleb128 0x2
 2427 0110 18       		.uleb128 0x18
 2428 0111 00       		.byte	0
 2429 0112 00       		.byte	0
 2430 0113 14       		.uleb128 0x14
 2431 0114 34       		.uleb128 0x34
 2432 0115 00       		.byte	0
 2433 0116 03       		.uleb128 0x3
 2434 0117 0E       		.uleb128 0xe
 2435 0118 3A       		.uleb128 0x3a
 2436 0119 0B       		.uleb128 0xb
 2437 011a 3B       		.uleb128 0x3b
 2438 011b 05       		.uleb128 0x5
 2439 011c 49       		.uleb128 0x49
 2440 011d 13       		.uleb128 0x13
 2441 011e 02       		.uleb128 0x2
 2442 011f 18       		.uleb128 0x18
 2443 0120 00       		.byte	0
 2444 0121 00       		.byte	0
 2445 0122 15       		.uleb128 0x15
 2446 0123 05       		.uleb128 0x5
 2447 0124 00       		.byte	0
 2448 0125 03       		.uleb128 0x3
 2449 0126 08       		.uleb128 0x8
 2450 0127 3A       		.uleb128 0x3a
 2451 0128 0B       		.uleb128 0xb
 2452 0129 3B       		.uleb128 0x3b
 2453 012a 05       		.uleb128 0x5
 2454 012b 49       		.uleb128 0x49
 2455 012c 13       		.uleb128 0x13
 2456 012d 02       		.uleb128 0x2
 2457 012e 18       		.uleb128 0x18
 2458 012f 00       		.byte	0
 2459 0130 00       		.byte	0
 2460 0131 16       		.uleb128 0x16
 2461 0132 2E       		.uleb128 0x2e
 2462 0133 00       		.byte	0
 2463 0134 3F       		.uleb128 0x3f
 2464 0135 19       		.uleb128 0x19
 2465 0136 03       		.uleb128 0x3
 2466 0137 0E       		.uleb128 0xe
 2467 0138 3A       		.uleb128 0x3a
ARM GAS  C:\Users\Jack\AppData\Local\Temp\ccYWX8Tu.s 			page 60


 2468 0139 0B       		.uleb128 0xb
 2469 013a 3B       		.uleb128 0x3b
 2470 013b 05       		.uleb128 0x5
 2471 013c 27       		.uleb128 0x27
 2472 013d 19       		.uleb128 0x19
 2473 013e 11       		.uleb128 0x11
 2474 013f 01       		.uleb128 0x1
 2475 0140 12       		.uleb128 0x12
 2476 0141 06       		.uleb128 0x6
 2477 0142 40       		.uleb128 0x40
 2478 0143 18       		.uleb128 0x18
 2479 0144 9642     		.uleb128 0x2116
 2480 0146 19       		.uleb128 0x19
 2481 0147 00       		.byte	0
 2482 0148 00       		.byte	0
 2483 0149 17       		.uleb128 0x17
 2484 014a 34       		.uleb128 0x34
 2485 014b 00       		.byte	0
 2486 014c 03       		.uleb128 0x3
 2487 014d 0E       		.uleb128 0xe
 2488 014e 3A       		.uleb128 0x3a
 2489 014f 0B       		.uleb128 0xb
 2490 0150 3B       		.uleb128 0x3b
 2491 0151 05       		.uleb128 0x5
 2492 0152 49       		.uleb128 0x49
 2493 0153 13       		.uleb128 0x13
 2494 0154 3F       		.uleb128 0x3f
 2495 0155 19       		.uleb128 0x19
 2496 0156 3C       		.uleb128 0x3c
 2497 0157 19       		.uleb128 0x19
 2498 0158 00       		.byte	0
 2499 0159 00       		.byte	0
 2500 015a 18       		.uleb128 0x18
 2501 015b 34       		.uleb128 0x34
 2502 015c 00       		.byte	0
 2503 015d 03       		.uleb128 0x3
 2504 015e 0E       		.uleb128 0xe
 2505 015f 3A       		.uleb128 0x3a
 2506 0160 0B       		.uleb128 0xb
 2507 0161 3B       		.uleb128 0x3b
 2508 0162 0B       		.uleb128 0xb
 2509 0163 49       		.uleb128 0x49
 2510 0164 13       		.uleb128 0x13
 2511 0165 3F       		.uleb128 0x3f
 2512 0166 19       		.uleb128 0x19
 2513 0167 02       		.uleb128 0x2
 2514 0168 18       		.uleb128 0x18
 2515 0169 00       		.byte	0
 2516 016a 00       		.byte	0
 2517 016b 19       		.uleb128 0x19
 2518 016c 01       		.uleb128 0x1
 2519 016d 01       		.byte	0x1
 2520 016e 49       		.uleb128 0x49
 2521 016f 13       		.uleb128 0x13
 2522 0170 01       		.uleb128 0x1
 2523 0171 13       		.uleb128 0x13
 2524 0172 00       		.byte	0
ARM GAS  C:\Users\Jack\AppData\Local\Temp\ccYWX8Tu.s 			page 61


 2525 0173 00       		.byte	0
 2526 0174 1A       		.uleb128 0x1a
 2527 0175 21       		.uleb128 0x21
 2528 0176 00       		.byte	0
 2529 0177 49       		.uleb128 0x49
 2530 0178 13       		.uleb128 0x13
 2531 0179 2F       		.uleb128 0x2f
 2532 017a 0B       		.uleb128 0xb
 2533 017b 00       		.byte	0
 2534 017c 00       		.byte	0
 2535 017d 00       		.byte	0
 2536              		.section	.debug_aranges,"",%progbits
 2537 0000 54000000 		.4byte	0x54
 2538 0004 0200     		.2byte	0x2
 2539 0006 00000000 		.4byte	.Ldebug_info0
 2540 000a 04       		.byte	0x4
 2541 000b 00       		.byte	0
 2542 000c 0000     		.2byte	0
 2543 000e 0000     		.2byte	0
 2544 0010 00000000 		.4byte	.LFB35
 2545 0014 88020000 		.4byte	.LFE35-.LFB35
 2546 0018 00000000 		.4byte	.LFB36
 2547 001c 5C000000 		.4byte	.LFE36-.LFB36
 2548 0020 00000000 		.4byte	.LFB37
 2549 0024 64000000 		.4byte	.LFE37-.LFB37
 2550 0028 00000000 		.4byte	.LFB38
 2551 002c 40000000 		.4byte	.LFE38-.LFB38
 2552 0030 00000000 		.4byte	.LFB39
 2553 0034 38010000 		.4byte	.LFE39-.LFB39
 2554 0038 00000000 		.4byte	.LFB40
 2555 003c 00010000 		.4byte	.LFE40-.LFB40
 2556 0040 00000000 		.4byte	.LFB41
 2557 0044 C0000000 		.4byte	.LFE41-.LFB41
 2558 0048 00000000 		.4byte	.LFB42
 2559 004c 42000000 		.4byte	.LFE42-.LFB42
 2560 0050 00000000 		.4byte	0
 2561 0054 00000000 		.4byte	0
 2562              		.section	.debug_ranges,"",%progbits
 2563              	.Ldebug_ranges0:
 2564 0000 00000000 		.4byte	.LFB35
 2565 0004 88020000 		.4byte	.LFE35
 2566 0008 00000000 		.4byte	.LFB36
 2567 000c 5C000000 		.4byte	.LFE36
 2568 0010 00000000 		.4byte	.LFB37
 2569 0014 64000000 		.4byte	.LFE37
 2570 0018 00000000 		.4byte	.LFB38
 2571 001c 40000000 		.4byte	.LFE38
 2572 0020 00000000 		.4byte	.LFB39
 2573 0024 38010000 		.4byte	.LFE39
 2574 0028 00000000 		.4byte	.LFB40
 2575 002c 00010000 		.4byte	.LFE40
 2576 0030 00000000 		.4byte	.LFB41
 2577 0034 C0000000 		.4byte	.LFE41
 2578 0038 00000000 		.4byte	.LFB42
 2579 003c 42000000 		.4byte	.LFE42
 2580 0040 00000000 		.4byte	0
 2581 0044 00000000 		.4byte	0
ARM GAS  C:\Users\Jack\AppData\Local\Temp\ccYWX8Tu.s 			page 62


 2582              		.section	.debug_line,"",%progbits
 2583              	.Ldebug_line0:
 2584 0000 42020000 		.section	.debug_str,"MS",%progbits,1
 2584      0200AF00 
 2584      00000201 
 2584      FB0E0D00 
 2584      01010101 
 2585              	.LASF81:
 2586 0000 4359424C 		.ascii	"CYBLE_EVT_L2CAP_CBFC_RX_CREDIT_IND\000"
 2586      455F4556 
 2586      545F4C32 
 2586      4341505F 
 2586      43424643 
 2587              	.LASF22:
 2588 0023 4359424C 		.ascii	"CYBLE_EVT_STACK_BUSY_STATUS\000"
 2588      455F4556 
 2588      545F5354 
 2588      41434B5F 
 2588      42555359 
 2589              	.LASF107:
 2590 003f 4359424C 		.ascii	"CYBLE_STATE_STOPPED\000"
 2590      455F5354 
 2590      4154455F 
 2590      53544F50 
 2590      50454400 
 2591              	.LASF80:
 2592 0053 4359424C 		.ascii	"CYBLE_EVT_L2CAP_CBFC_DATA_READ\000"
 2592      455F4556 
 2592      545F4C32 
 2592      4341505F 
 2592      43424643 
 2593              	.LASF97:
 2594 0072 4359424C 		.ascii	"CYBLE_CONN_HANDLE_T\000"
 2594      455F434F 
 2594      4E4E5F48 
 2594      414E444C 
 2594      455F5400 
 2595              	.LASF104:
 2596 0086 636F6E6E 		.ascii	"connHandle\000"
 2596      48616E64 
 2596      6C6500
 2597              	.LASF138:
 2598 0091 636F6E6E 		.ascii	"connectionHandle\000"
 2598      65637469 
 2598      6F6E4861 
 2598      6E646C65 
 2598      00
 2599              	.LASF34:
 2600 00a2 4359424C 		.ascii	"CYBLE_EVT_GAP_CONNECTION_UPDATE_COMPLETE\000"
 2600      455F4556 
 2600      545F4741 
 2600      505F434F 
 2600      4E4E4543 
 2601              	.LASF79:
 2602 00cb 4359424C 		.ascii	"CYBLE_EVT_L2CAP_CBFC_DISCONN_CNF\000"
 2602      455F4556 
 2602      545F4C32 
ARM GAS  C:\Users\Jack\AppData\Local\Temp\ccYWX8Tu.s 			page 63


 2602      4341505F 
 2602      43424643 
 2603              	.LASF39:
 2604 00ec 4359424C 		.ascii	"CYBLE_EVT_GAP_OOB_GENERATED_NOTIFICATION\000"
 2604      455F4556 
 2604      545F4741 
 2604      505F4F4F 
 2604      425F4745 
 2605              	.LASF59:
 2606 0115 4359424C 		.ascii	"CYBLE_EVT_GATTC_READ_MULTI_RSP\000"
 2606      455F4556 
 2606      545F4741 
 2606      5454435F 
 2606      52454144 
 2607              	.LASF64:
 2608 0134 4359424C 		.ascii	"CYBLE_EVT_GATTS_EXEC_WRITE_REQ\000"
 2608      455F4556 
 2608      545F4741 
 2608      5454535F 
 2608      45584543 
 2609              	.LASF53:
 2610 0153 4359424C 		.ascii	"CYBLE_EVT_GATTC_READ_BY_GROUP_TYPE_RSP\000"
 2610      455F4556 
 2610      545F4741 
 2610      5454435F 
 2610      52454144 
 2611              	.LASF126:
 2612 017a 64656275 		.ascii	"debug_blue\000"
 2612      675F626C 
 2612      756500
 2613              	.LASF145:
 2614 0185 656E6162 		.ascii	"enableCapSenseData\000"
 2614      6C654361 
 2614      7053656E 
 2614      73654461 
 2614      746100
 2615              	.LASF19:
 2616 0198 4359424C 		.ascii	"CYBLE_EVT_TIMEOUT\000"
 2616      455F4556 
 2616      545F5449 
 2616      4D454F55 
 2616      5400
 2617              	.LASF4:
 2618 01aa 6C6F6E67 		.ascii	"long int\000"
 2618      20696E74 
 2618      00
 2619              	.LASF7:
 2620 01b3 6C6F6E67 		.ascii	"long long unsigned int\000"
 2620      206C6F6E 
 2620      6720756E 
 2620      7369676E 
 2620      65642069 
 2621              	.LASF99:
 2622 01ca 4359424C 		.ascii	"CYBLE_GATT_VALUE_T\000"
 2622      455F4741 
 2622      54545F56 
 2622      414C5545 
ARM GAS  C:\Users\Jack\AppData\Local\Temp\ccYWX8Tu.s 			page 64


 2622      5F5400
 2623              	.LASF21:
 2624 01dd 4359424C 		.ascii	"CYBLE_EVT_HCI_STATUS\000"
 2624      455F4556 
 2624      545F4843 
 2624      495F5354 
 2624      41545553 
 2625              	.LASF84:
 2626 01f2 4359424C 		.ascii	"CYBLE_EVT_PENDING_FLASH_WRITE\000"
 2626      455F4556 
 2626      545F5045 
 2626      4E44494E 
 2626      475F464C 
 2627              	.LASF134:
 2628 0210 496E6974 		.ascii	"InitializeWatchdog\000"
 2628      69616C69 
 2628      7A655761 
 2628      74636864 
 2628      6F6700
 2629              	.LASF73:
 2630 0223 4359424C 		.ascii	"CYBLE_EVT_L2CAP_CONN_PARAM_UPDATE_REQ\000"
 2630      455F4556 
 2630      545F4C32 
 2630      4341505F 
 2630      434F4E4E 
 2631              	.LASF37:
 2632 0249 4359424C 		.ascii	"CYBLE_EVT_GAP_NUMERIC_COMPARISON_REQUEST\000"
 2632      455F4556 
 2632      545F4741 
 2632      505F4E55 
 2632      4D455249 
 2633              	.LASF119:
 2634 0272 43617053 		.ascii	"CapSensenotificationHandle\000"
 2634      656E7365 
 2634      6E6F7469 
 2634      66696361 
 2634      74696F6E 
 2635              	.LASF110:
 2636 028d 4359424C 		.ascii	"CYBLE_STATE_ADVERTISING\000"
 2636      455F5354 
 2636      4154455F 
 2636      41445645 
 2636      52544953 
 2637              	.LASF6:
 2638 02a5 6C6F6E67 		.ascii	"long long int\000"
 2638      206C6F6E 
 2638      6720696E 
 2638      7400
 2639              	.LASF0:
 2640 02b3 7369676E 		.ascii	"signed char\000"
 2640      65642063 
 2640      68617200 
 2641              	.LASF18:
 2642 02bf 4359424C 		.ascii	"CYBLE_EVT_STACK_ON\000"
 2642      455F4556 
 2642      545F5354 
 2642      41434B5F 
ARM GAS  C:\Users\Jack\AppData\Local\Temp\ccYWX8Tu.s 			page 65


 2642      4F4E00
 2643              	.LASF23:
 2644 02d2 4359424C 		.ascii	"CYBLE_EVT_MEMORY_REQUEST\000"
 2644      455F4556 
 2644      545F4D45 
 2644      4D4F5259 
 2644      5F524551 
 2645              	.LASF121:
 2646 02eb 7267624C 		.ascii	"rgbLedData\000"
 2646      65644461 
 2646      746100
 2647              	.LASF35:
 2648 02f6 4359424C 		.ascii	"CYBLE_EVT_GAPC_SCAN_START_STOP\000"
 2648      455F4556 
 2648      545F4741 
 2648      50435F53 
 2648      43414E5F 
 2649              	.LASF98:
 2650 0315 61637475 		.ascii	"actualLen\000"
 2650      616C4C65 
 2650      6E00
 2651              	.LASF25:
 2652 031f 4359424C 		.ascii	"CYBLE_EVT_GAP_AUTH_REQ\000"
 2652      455F4556 
 2652      545F4741 
 2652      505F4155 
 2652      54485F52 
 2653              	.LASF57:
 2654 0336 4359424C 		.ascii	"CYBLE_EVT_GATTC_READ_RSP\000"
 2654      455F4556 
 2654      545F4741 
 2654      5454435F 
 2654      52454144 
 2655              	.LASF136:
 2656 034f 436F6E6E 		.ascii	"ConnectionParam\000"
 2656      65637469 
 2656      6F6E5061 
 2656      72616D00 
 2657              	.LASF130:
 2658 035f 73746174 		.ascii	"state\000"
 2658      6500
 2659              	.LASF62:
 2660 0365 4359424C 		.ascii	"CYBLE_EVT_GATTS_WRITE_CMD_REQ\000"
 2660      455F4556 
 2660      545F4741 
 2660      5454535F 
 2660      57524954 
 2661              	.LASF122:
 2662 0383 7267624C 		.ascii	"rgbLednotificationHandle\000"
 2662      65646E6F 
 2662      74696669 
 2662      63617469 
 2662      6F6E4861 
 2663              	.LASF128:
 2664 039c 48616E64 		.ascii	"HandleStatusLED\000"
 2664      6C655374 
 2664      61747573 
ARM GAS  C:\Users\Jack\AppData\Local\Temp\ccYWX8Tu.s 			page 66


 2664      4C454400 
 2665              	.LASF111:
 2666 03ac 4359424C 		.ascii	"CYBLE_STATE_DISCONNECTED\000"
 2666      455F5354 
 2666      4154455F 
 2666      44495343 
 2666      4F4E4E45 
 2667              	.LASF30:
 2668 03c5 4359424C 		.ascii	"CYBLE_EVT_GAPP_ADVERTISEMENT_START_STOP\000"
 2668      455F4556 
 2668      545F4741 
 2668      50505F41 
 2668      44564552 
 2669              	.LASF9:
 2670 03ed 75696E74 		.ascii	"uint8\000"
 2670      3800
 2671              	.LASF65:
 2672 03f3 4359424C 		.ascii	"CYBLE_EVT_GATTC_EXEC_WRITE_RSP\000"
 2672      455F4556 
 2672      545F4741 
 2672      5454435F 
 2672      45584543 
 2673              	.LASF13:
 2674 0412 646F7562 		.ascii	"double\000"
 2674      6C6500
 2675              	.LASF78:
 2676 0419 4359424C 		.ascii	"CYBLE_EVT_L2CAP_CBFC_DISCONN_IND\000"
 2676      455F4556 
 2676      545F4C32 
 2676      4341505F 
 2676      43424643 
 2677              	.LASF146:
 2678 043a 73687574 		.ascii	"shut_down_led\000"
 2678      5F646F77 
 2678      6E5F6C65 
 2678      6400
 2679              	.LASF11:
 2680 0448 75696E74 		.ascii	"uint32\000"
 2680      333200
 2681              	.LASF149:
 2682 044f 73776974 		.ascii	"switch_off_status_led\000"
 2682      63685F6F 
 2682      66665F73 
 2682      74617475 
 2682      735F6C65 
 2683              	.LASF88:
 2684 0465 4359424C 		.ascii	"CYBLE_EVT_MAX\000"
 2684      455F4556 
 2684      545F4D41 
 2684      5800
 2685              	.LASF118:
 2686 0473 77725265 		.ascii	"wrReqParam\000"
 2686      71506172 
 2686      616D00
 2687              	.LASF83:
 2688 047e 4359424C 		.ascii	"CYBLE_EVT_L2CAP_CBFC_DATA_WRITE_IND\000"
 2688      455F4556 
ARM GAS  C:\Users\Jack\AppData\Local\Temp\ccYWX8Tu.s 			page 67


 2688      545F4C32 
 2688      4341505F 
 2688      43424643 
 2689              	.LASF101:
 2690 04a2 61747472 		.ascii	"attrHandle\000"
 2690      48616E64 
 2690      6C6500
 2691              	.LASF100:
 2692 04ad 76616C75 		.ascii	"value\000"
 2692      6500
 2693              	.LASF148:
 2694 04b3 74696D65 		.ascii	"timer_tick\000"
 2694      725F7469 
 2694      636B00
 2695              	.LASF70:
 2696 04be 4359424C 		.ascii	"CYBLE_EVT_GATTC_STOP_CMD_COMPLETE\000"
 2696      455F4556 
 2696      545F4741 
 2696      5454435F 
 2696      53544F50 
 2697              	.LASF8:
 2698 04e0 756E7369 		.ascii	"unsigned int\000"
 2698      676E6564 
 2698      20696E74 
 2698      00
 2699              	.LASF85:
 2700 04ed 4359424C 		.ascii	"CYBLE_EVT_LE_PING_AUTH_TIMEOUT\000"
 2700      455F4556 
 2700      545F4C45 
 2700      5F50494E 
 2700      475F4155 
 2701              	.LASF5:
 2702 050c 6C6F6E67 		.ascii	"long unsigned int\000"
 2702      20756E73 
 2702      69676E65 
 2702      6420696E 
 2702      7400
 2703              	.LASF44:
 2704 051e 4359424C 		.ascii	"CYBLE_EVT_GAP_CONN_ESTB\000"
 2704      455F4556 
 2704      545F4741 
 2704      505F434F 
 2704      4E4E5F45 
 2705              	.LASF93:
 2706 0536 4359424C 		.ascii	"CYBLE_GAP_CONN_UPDATE_PARAM_T\000"
 2706      455F4741 
 2706      505F434F 
 2706      4E4E5F55 
 2706      50444154 
 2707              	.LASF60:
 2708 0554 4359424C 		.ascii	"CYBLE_EVT_GATTS_WRITE_REQ\000"
 2708      455F4556 
 2708      545F4741 
 2708      5454535F 
 2708      57524954 
 2709              	.LASF52:
 2710 056e 4359424C 		.ascii	"CYBLE_EVT_GATTC_XCHNG_MTU_RSP\000"
ARM GAS  C:\Users\Jack\AppData\Local\Temp\ccYWX8Tu.s 			page 68


 2710      455F4556 
 2710      545F4741 
 2710      5454435F 
 2710      5843484E 
 2711              	.LASF69:
 2712 058c 4359424C 		.ascii	"CYBLE_EVT_GATTS_DATA_SIGNED_CMD_REQ\000"
 2712      455F4556 
 2712      545F4741 
 2712      5454535F 
 2712      44415441 
 2713              	.LASF153:
 2714 05b0 43617053 		.ascii	"CapSenseNotificationCCCDhandle\000"
 2714      656E7365 
 2714      4E6F7469 
 2714      66696361 
 2714      74696F6E 
 2715              	.LASF72:
 2716 05cf 4359424C 		.ascii	"CYBLE_EVT_GATTC_LONG_PROCEDURE_END\000"
 2716      455F4556 
 2716      545F4741 
 2716      5454435F 
 2716      4C4F4E47 
 2717              	.LASF92:
 2718 05f2 73757065 		.ascii	"supervisionTO\000"
 2718      72766973 
 2718      696F6E54 
 2718      4F00
 2719              	.LASF154:
 2720 0600 5247424E 		.ascii	"RGBNotificationCCCDhandle\000"
 2720      6F746966 
 2720      69636174 
 2720      696F6E43 
 2720      43434468 
 2721              	.LASF113:
 2722 061a 6576656E 		.ascii	"event\000"
 2722      7400
 2723              	.LASF3:
 2724 0620 73686F72 		.ascii	"short unsigned int\000"
 2724      7420756E 
 2724      7369676E 
 2724      65642069 
 2724      6E7400
 2725              	.LASF17:
 2726 0633 4359424C 		.ascii	"CYBLE_EVT_HOST_INVALID\000"
 2726      455F4556 
 2726      545F484F 
 2726      53545F49 
 2726      4E56414C 
 2727              	.LASF55:
 2728 064a 4359424C 		.ascii	"CYBLE_EVT_GATTC_FIND_INFO_RSP\000"
 2728      455F4556 
 2728      545F4741 
 2728      5454435F 
 2728      46494E44 
 2729              	.LASF127:
 2730 0668 696E7465 		.ascii	"intensity_divide_value\000"
 2730      6E736974 
ARM GAS  C:\Users\Jack\AppData\Local\Temp\ccYWX8Tu.s 			page 69


 2730      795F6469 
 2730      76696465 
 2730      5F76616C 
 2731              	.LASF142:
 2732 067f 5247426C 		.ascii	"RGBledData\000"
 2732      65644461 
 2732      746100
 2733              	.LASF26:
 2734 068a 4359424C 		.ascii	"CYBLE_EVT_GAP_PASSKEY_ENTRY_REQUEST\000"
 2734      455F4556 
 2734      545F4741 
 2734      505F5041 
 2734      53534B45 
 2735              	.LASF31:
 2736 06ae 4359424C 		.ascii	"CYBLE_EVT_GAP_DEVICE_CONNECTED\000"
 2736      455F4556 
 2736      545F4741 
 2736      505F4445 
 2736      56494345 
 2737              	.LASF46:
 2738 06cd 4359424C 		.ascii	"CYBLE_EVT_GAP_AUTH_REQ_REPLY_ERR\000"
 2738      455F4556 
 2738      545F4741 
 2738      505F4155 
 2738      54485F52 
 2739              	.LASF54:
 2740 06ee 4359424C 		.ascii	"CYBLE_EVT_GATTC_READ_BY_TYPE_RSP\000"
 2740      455F4556 
 2740      545F4741 
 2740      5454435F 
 2740      52454144 
 2741              	.LASF137:
 2742 070f 6379426C 		.ascii	"cyBle_state\000"
 2742      655F7374 
 2742      61746500 
 2743              	.LASF155:
 2744 071b 474E5520 		.ascii	"GNU C11 5.4.1 20160609 (release) [ARM/embedded-5-br"
 2744      43313120 
 2744      352E342E 
 2744      31203230 
 2744      31363036 
 2745 074e 616E6368 		.ascii	"anch revision 237715] -mcpu=cortex-m0 -mthumb -g -O"
 2745      20726576 
 2745      6973696F 
 2745      6E203233 
 2745      37373135 
 2746 0781 30202D66 		.ascii	"0 -ffunction-sections -ffat-lto-objects\000"
 2746      66756E63 
 2746      74696F6E 
 2746      2D736563 
 2746      74696F6E 
 2747              	.LASF49:
 2748 07a9 4359424C 		.ascii	"CYBLE_EVT_GATT_CONNECT_IND\000"
 2748      455F4556 
 2748      545F4741 
 2748      54545F43 
 2748      4F4E4E45 
ARM GAS  C:\Users\Jack\AppData\Local\Temp\ccYWX8Tu.s 			page 70


 2749              	.LASF96:
 2750 07c4 61747449 		.ascii	"attId\000"
 2750      6400
 2751              	.LASF75:
 2752 07ca 4359424C 		.ascii	"CYBLE_EVT_L2CAP_COMMAND_REJ\000"
 2752      455F4556 
 2752      545F4C32 
 2752      4341505F 
 2752      434F4D4D 
 2753              	.LASF24:
 2754 07e6 4359424C 		.ascii	"CYBLE_EVT_GAPC_SCAN_PROGRESS_RESULT\000"
 2754      455F4556 
 2754      545F4741 
 2754      50435F53 
 2754      43414E5F 
 2755              	.LASF105:
 2756 080a 68616E64 		.ascii	"handleValPair\000"
 2756      6C655661 
 2756      6C506169 
 2756      7200
 2757              	.LASF91:
 2758 0818 636F6E6E 		.ascii	"connLatency\000"
 2758      4C617465 
 2758      6E637900 
 2759              	.LASF47:
 2760 0824 4359424C 		.ascii	"CYBLE_EVT_GAP_SMP_LOC_P256_KEYS_GEN_AND_SET_COMPLET"
 2760      455F4556 
 2760      545F4741 
 2760      505F534D 
 2760      505F4C4F 
 2761 0857 4500     		.ascii	"E\000"
 2762              	.LASF76:
 2763 0859 4359424C 		.ascii	"CYBLE_EVT_L2CAP_CBFC_CONN_IND\000"
 2763      455F4556 
 2763      545F4C32 
 2763      4341505F 
 2763      43424643 
 2764              	.LASF147:
 2765 0877 6C65645F 		.ascii	"led_timer\000"
 2765      74696D65 
 2765      7200
 2766              	.LASF141:
 2767 0881 7267626C 		.ascii	"rgbledNotifications\000"
 2767      65644E6F 
 2767      74696669 
 2767      63617469 
 2767      6F6E7300 
 2768              	.LASF15:
 2769 0895 73697A65 		.ascii	"sizetype\000"
 2769      74797065 
 2769      00
 2770              	.LASF106:
 2771 089e 4359424C 		.ascii	"CYBLE_GATTS_WRITE_REQ_PARAM_T\000"
 2771      455F4741 
 2771      5454535F 
 2771      57524954 
 2771      455F5245 
ARM GAS  C:\Users\Jack\AppData\Local\Temp\ccYWX8Tu.s 			page 71


 2772              	.LASF103:
 2773 08bc 4359424C 		.ascii	"CYBLE_GATTS_HANDLE_VALUE_NTF_T\000"
 2773      455F4741 
 2773      5454535F 
 2773      48414E44 
 2773      4C455F56 
 2774              	.LASF108:
 2775 08db 4359424C 		.ascii	"CYBLE_STATE_INITIALIZING\000"
 2775      455F5354 
 2775      4154455F 
 2775      494E4954 
 2775      49414C49 
 2776              	.LASF29:
 2777 08f4 4359424C 		.ascii	"CYBLE_EVT_GAP_AUTH_FAILED\000"
 2777      455F4556 
 2777      545F4741 
 2777      505F4155 
 2777      54485F46 
 2778              	.LASF132:
 2779 090e 55706461 		.ascii	"UpdateConnectionParam\000"
 2779      7465436F 
 2779      6E6E6563 
 2779      74696F6E 
 2779      50617261 
 2780              	.LASF61:
 2781 0924 4359424C 		.ascii	"CYBLE_EVT_GATTC_WRITE_RSP\000"
 2781      455F4556 
 2781      545F4741 
 2781      5454435F 
 2781      57524954 
 2782              	.LASF42:
 2783 093e 4359424C 		.ascii	"CYBLE_EVT_GAPC_DIRECT_ADV_REPORT\000"
 2783      455F4556 
 2783      545F4741 
 2783      50435F44 
 2783      49524543 
 2784              	.LASF40:
 2785 095f 4359424C 		.ascii	"CYBLE_EVT_GAP_DATA_LENGTH_CHANGE\000"
 2785      455F4556 
 2785      545F4741 
 2785      505F4441 
 2785      54415F4C 
 2786              	.LASF115:
 2787 0980 43757374 		.ascii	"CustomEventHandler\000"
 2787      6F6D4576 
 2787      656E7448 
 2787      616E646C 
 2787      657200
 2788              	.LASF143:
 2789 0993 64657669 		.ascii	"deviceConnected\000"
 2789      6365436F 
 2789      6E6E6563 
 2789      74656400 
 2790              	.LASF28:
 2791 09a3 4359424C 		.ascii	"CYBLE_EVT_GAP_AUTH_COMPLETE\000"
 2791      455F4556 
 2791      545F4741 
ARM GAS  C:\Users\Jack\AppData\Local\Temp\ccYWX8Tu.s 			page 72


 2791      505F4155 
 2791      54485F43 
 2792              	.LASF90:
 2793 09bf 636F6E6E 		.ascii	"connIntvMax\000"
 2793      496E7476 
 2793      4D617800 
 2794              	.LASF139:
 2795 09cb 72676248 		.ascii	"rgbHandle\000"
 2795      616E646C 
 2795      6500
 2796              	.LASF66:
 2797 09d5 4359424C 		.ascii	"CYBLE_EVT_GATTC_HANDLE_VALUE_NTF\000"
 2797      455F4556 
 2797      545F4741 
 2797      5454435F 
 2797      48414E44 
 2798              	.LASF102:
 2799 09f6 4359424C 		.ascii	"CYBLE_GATT_HANDLE_VALUE_PAIR_T\000"
 2799      455F4741 
 2799      54545F48 
 2799      414E444C 
 2799      455F5641 
 2800              	.LASF77:
 2801 0a15 4359424C 		.ascii	"CYBLE_EVT_L2CAP_CBFC_CONN_CNF\000"
 2801      455F4556 
 2801      545F4C32 
 2801      4341505F 
 2801      43424643 
 2802              	.LASF89:
 2803 0a33 636F6E6E 		.ascii	"connIntvMin\000"
 2803      496E7476 
 2803      4D696E00 
 2804              	.LASF12:
 2805 0a3f 666C6F61 		.ascii	"float\000"
 2805      7400
 2806              	.LASF150:
 2807 0a45 62757379 		.ascii	"busyStatus\000"
 2807      53746174 
 2807      757300
 2808              	.LASF120:
 2809 0a50 53656E64 		.ascii	"SendDataOverRGBledNotification\000"
 2809      44617461 
 2809      4F766572 
 2809      5247426C 
 2809      65644E6F 
 2810              	.LASF133:
 2811 0a6f 5744545F 		.ascii	"WDT_INT_Handler\000"
 2811      494E545F 
 2811      48616E64 
 2811      6C657200 
 2812              	.LASF131:
 2813 0a7f 73746174 		.ascii	"state_changed\000"
 2813      655F6368 
 2813      616E6765 
 2813      6400
 2814              	.LASF1:
 2815 0a8d 756E7369 		.ascii	"unsigned char\000"
ARM GAS  C:\Users\Jack\AppData\Local\Temp\ccYWX8Tu.s 			page 73


 2815      676E6564 
 2815      20636861 
 2815      7200
 2816              	.LASF10:
 2817 0a9b 75696E74 		.ascii	"uint16\000"
 2817      313600
 2818              	.LASF38:
 2819 0aa2 4359424C 		.ascii	"CYBLE_EVT_GAP_KEYPRESS_NOTIFICATION\000"
 2819      455F4556 
 2819      545F4741 
 2819      505F4B45 
 2819      59505245 
 2820              	.LASF117:
 2821 0ac6 43617053 		.ascii	"CapSenseSliderData\000"
 2821      656E7365 
 2821      536C6964 
 2821      65724461 
 2821      746100
 2822              	.LASF2:
 2823 0ad9 73686F72 		.ascii	"short int\000"
 2823      7420696E 
 2823      7400
 2824              	.LASF67:
 2825 0ae3 4359424C 		.ascii	"CYBLE_EVT_GATTC_HANDLE_VALUE_IND\000"
 2825      455F4556 
 2825      545F4741 
 2825      5454435F 
 2825      48414E44 
 2826              	.LASF152:
 2827 0b04 52474243 		.ascii	"RGBCCCDvalue\000"
 2827      43434476 
 2827      616C7565 
 2827      00
 2828              	.LASF86:
 2829 0b11 4359424C 		.ascii	"CYBLE_EVT_HCI_PKT\000"
 2829      455F4556 
 2829      545F4843 
 2829      495F504B 
 2829      5400
 2830              	.LASF151:
 2831 0b23 43617053 		.ascii	"CapSenseCCCDvalue\000"
 2831      656E7365 
 2831      43434344 
 2831      76616C75 
 2831      6500
 2832              	.LASF63:
 2833 0b35 4359424C 		.ascii	"CYBLE_EVT_GATTS_PREP_WRITE_REQ\000"
 2833      455F4556 
 2833      545F4741 
 2833      5454535F 
 2833      50524550 
 2834              	.LASF33:
 2835 0b54 4359424C 		.ascii	"CYBLE_EVT_GAP_ENCRYPT_CHANGE\000"
 2835      455F4556 
 2835      545F4741 
 2835      505F454E 
 2835      43525950 
ARM GAS  C:\Users\Jack\AppData\Local\Temp\ccYWX8Tu.s 			page 74


 2836              	.LASF68:
 2837 0b71 4359424C 		.ascii	"CYBLE_EVT_GATTS_HANDLE_VALUE_CNF\000"
 2837      455F4556 
 2837      545F4741 
 2837      5454535F 
 2837      48414E44 
 2838              	.LASF48:
 2839 0b92 4359424C 		.ascii	"CYBLE_EVT_GATTC_ERROR_RSP\000"
 2839      455F4556 
 2839      545F4741 
 2839      5454435F 
 2839      4552524F 
 2840              	.LASF43:
 2841 0bac 4359424C 		.ascii	"CYBLE_EVT_GAP_SMP_NEGOTIATED_AUTH_INFO\000"
 2841      455F4556 
 2841      545F4741 
 2841      505F534D 
 2841      505F4E45 
 2842              	.LASF116:
 2843 0bd3 53656E64 		.ascii	"SendDataOverCapSenseNotification\000"
 2843      44617461 
 2843      4F766572 
 2843      43617053 
 2843      656E7365 
 2844              	.LASF16:
 2845 0bf4 6C6F6E67 		.ascii	"long double\000"
 2845      20646F75 
 2845      626C6500 
 2846              	.LASF87:
 2847 0c00 4359424C 		.ascii	"CYBLE_EVT_FLASH_CORRUPT\000"
 2847      455F4556 
 2847      545F464C 
 2847      4153485F 
 2847      434F5252 
 2848              	.LASF124:
 2849 0c18 64656275 		.ascii	"debug_red\000"
 2849      675F7265 
 2849      6400
 2850              	.LASF14:
 2851 0c22 63686172 		.ascii	"char\000"
 2851      00
 2852              	.LASF45:
 2853 0c27 4359424C 		.ascii	"CYBLE_EVT_GAP_SCAN_REQ_RECVD\000"
 2853      455F4556 
 2853      545F4741 
 2853      505F5343 
 2853      414E5F52 
 2854              	.LASF32:
 2855 0c44 4359424C 		.ascii	"CYBLE_EVT_GAP_DEVICE_DISCONNECTED\000"
 2855      455F4556 
 2855      545F4741 
 2855      505F4445 
 2855      56494345 
 2856              	.LASF71:
 2857 0c66 4359424C 		.ascii	"CYBLE_EVT_GATTS_READ_CHAR_VAL_ACCESS_REQ\000"
 2857      455F4556 
 2857      545F4741 
ARM GAS  C:\Users\Jack\AppData\Local\Temp\ccYWX8Tu.s 			page 75


 2857      5454535F 
 2857      52454144 
 2858              	.LASF140:
 2859 0c8f 73656E64 		.ascii	"sendCapSenseSliderNotifications\000"
 2859      43617053 
 2859      656E7365 
 2859      536C6964 
 2859      65724E6F 
 2860              	.LASF156:
 2861 0caf 424C4541 		.ascii	"BLEApplications.c\000"
 2861      70706C69 
 2861      63617469 
 2861      6F6E732E 
 2861      6300
 2862              	.LASF82:
 2863 0cc1 4359424C 		.ascii	"CYBLE_EVT_L2CAP_CBFC_TX_CREDIT_IND\000"
 2863      455F4556 
 2863      545F4C32 
 2863      4341505F 
 2863      43424643 
 2864              	.LASF125:
 2865 0ce4 64656275 		.ascii	"debug_green\000"
 2865      675F6772 
 2865      65656E00 
 2866              	.LASF27:
 2867 0cf0 4359424C 		.ascii	"CYBLE_EVT_GAP_PASSKEY_DISPLAY_REQUEST\000"
 2867      455F4556 
 2867      545F4741 
 2867      505F5041 
 2867      53534B45 
 2868              	.LASF20:
 2869 0d16 4359424C 		.ascii	"CYBLE_EVT_HARDWARE_ERROR\000"
 2869      455F4556 
 2869      545F4841 
 2869      52445741 
 2869      52455F45 
 2870              	.LASF157:
 2871 0d2f 433A5C55 		.ascii	"C:\\Users\\Jack\\Documents\\PSoC Creator\\LED capse"
 2871      73657273 
 2871      5C4A6163 
 2871      6B5C446F 
 2871      63756D65 
 2872 0d5d 6E736520 		.ascii	"nse slider\\PSoC_4_BLE_CapSense_Slider_LED01\\PSoC_"
 2872      736C6964 
 2872      65725C50 
 2872      536F435F 
 2872      345F424C 
 2873 0d8e 345F424C 		.ascii	"4_BLE_CapSense_Slider_LED01.cydsn\000"
 2873      455F4361 
 2873      7053656E 
 2873      73655F53 
 2873      6C696465 
 2874              	.LASF51:
 2875 0db0 4359424C 		.ascii	"CYBLE_EVT_GATTS_XCNHG_MTU_REQ\000"
 2875      455F4556 
 2875      545F4741 
 2875      5454535F 
ARM GAS  C:\Users\Jack\AppData\Local\Temp\ccYWX8Tu.s 			page 76


 2875      58434E48 
 2876              	.LASF114:
 2877 0dce 6576656E 		.ascii	"eventParam\000"
 2877      74506172 
 2877      616D00
 2878              	.LASF123:
 2879 0dd9 55706461 		.ascii	"UpdateRGBled\000"
 2879      74655247 
 2879      426C6564 
 2879      00
 2880              	.LASF112:
 2881 0de6 4359424C 		.ascii	"CYBLE_STATE_T\000"
 2881      455F5354 
 2881      4154455F 
 2881      5400
 2882              	.LASF135:
 2883 0df4 6973436F 		.ascii	"isConnectionUpdateRequested\000"
 2883      6E6E6563 
 2883      74696F6E 
 2883      55706461 
 2883      74655265 
 2884              	.LASF144:
 2885 0e10 72657374 		.ascii	"restartAdvertisement\000"
 2885      61727441 
 2885      64766572 
 2885      74697365 
 2885      6D656E74 
 2886              	.LASF58:
 2887 0e25 4359424C 		.ascii	"CYBLE_EVT_GATTC_READ_BLOB_RSP\000"
 2887      455F4556 
 2887      545F4741 
 2887      5454435F 
 2887      52454144 
 2888              	.LASF109:
 2889 0e43 4359424C 		.ascii	"CYBLE_STATE_CONNECTED\000"
 2889      455F5354 
 2889      4154455F 
 2889      434F4E4E 
 2889      45435445 
 2890              	.LASF56:
 2891 0e59 4359424C 		.ascii	"CYBLE_EVT_GATTC_FIND_BY_TYPE_VALUE_RSP\000"
 2891      455F4556 
 2891      545F4741 
 2891      5454435F 
 2891      46494E44 
 2892              	.LASF36:
 2893 0e80 4359424C 		.ascii	"CYBLE_EVT_GAP_KEYINFO_EXCHNGE_CMPLT\000"
 2893      455F4556 
 2893      545F4741 
 2893      505F4B45 
 2893      59494E46 
 2894              	.LASF95:
 2895 0ea4 62644861 		.ascii	"bdHandle\000"
 2895      6E646C65 
 2895      00
 2896              	.LASF74:
 2897 0ead 4359424C 		.ascii	"CYBLE_EVT_L2CAP_CONN_PARAM_UPDATE_RSP\000"
ARM GAS  C:\Users\Jack\AppData\Local\Temp\ccYWX8Tu.s 			page 77


 2897      455F4556 
 2897      545F4C32 
 2897      4341505F 
 2897      434F4E4E 
 2898              	.LASF41:
 2899 0ed3 4359424C 		.ascii	"CYBLE_EVT_GAP_ENHANCE_CONN_COMPLETE\000"
 2899      455F4556 
 2899      545F4741 
 2899      505F454E 
 2899      48414E43 
 2900              	.LASF94:
 2901 0ef7 4359424C 		.ascii	"CYBLE_GATT_DB_ATTR_HANDLE_T\000"
 2901      455F4741 
 2901      54545F44 
 2901      425F4154 
 2901      54525F48 
 2902              	.LASF129:
 2903 0f13 6C65645F 		.ascii	"led_counter\000"
 2903      636F756E 
 2903      74657200 
 2904              	.LASF50:
 2905 0f1f 4359424C 		.ascii	"CYBLE_EVT_GATT_DISCONNECT_IND\000"
 2905      455F4556 
 2905      545F4741 
 2905      54545F44 
 2905      4953434F 
 2906              		.ident	"GCC: (GNU Tools for ARM Embedded Processors) 5.4.1 20160609 (release) [ARM/embedded-5-bran
