ARM GAS  C:\Users\Jack\AppData\Local\Temp\cc0tVUsB.s 			page 1


   1              		.syntax unified
   2              		.cpu cortex-m0
   3              		.fpu softvfp
   4              		.eabi_attribute 20, 1
   5              		.eabi_attribute 21, 1
   6              		.eabi_attribute 23, 3
   7              		.eabi_attribute 24, 1
   8              		.eabi_attribute 25, 1
   9              		.eabi_attribute 26, 1
  10              		.eabi_attribute 30, 6
  11              		.eabi_attribute 34, 0
  12              		.eabi_attribute 18, 4
  13              		.thumb
  14              		.syntax unified
  15              		.file	"HandleLowPower.c"
  16              		.text
  17              	.Ltext0:
  18              		.cfi_sections	.debug_frame
  19              		.section	.text.HandleLowPowerMode,"ax",%progbits
  20              		.align	2
  21              		.global	HandleLowPowerMode
  22              		.code	16
  23              		.thumb_func
  24              		.type	HandleLowPowerMode, %function
  25              	HandleLowPowerMode:
  26              	.LFB35:
  27              		.file 1 "HandleLowPower.c"
   1:HandleLowPower.c **** /******************************************************************************
   2:HandleLowPower.c **** * Project Name		: PSoC_4_BLE_CapSense_Slider_LED
   3:HandleLowPower.c **** * File Name			: HandleLowPower.c
   4:HandleLowPower.c **** * Version 			: 1.0
   5:HandleLowPower.c **** * Device Used		: CY8C4248LQI-BL583
   6:HandleLowPower.c **** * Software Used		: PSoC Creator 4.2
   7:HandleLowPower.c **** * Compiler    		: ARM GCC 5.4.1
   8:HandleLowPower.c **** * Related Hardware	: CY8CKIT-042-BLE-A Bluetooth Low Energy Pioneer Kit
   9:HandleLowPower.c **** ******************************************************************************
  10:HandleLowPower.c **** * Copyright (2018), Cypress Semiconductor Corporation. All rights reserved.
  11:HandleLowPower.c **** *******************************************************************************
  12:HandleLowPower.c **** * This software, including source code, documentation and related materials
  13:HandleLowPower.c **** * (“Software”), is owned by Cypress Semiconductor Corporation or one of its
  14:HandleLowPower.c **** * subsidiaries (“Cypress”) and is protected by and subject to worldwide patent
  15:HandleLowPower.c **** * protection (United States and foreign), United States copyright laws and
  16:HandleLowPower.c **** * international treaty provisions. Therefore, you may use this Software only
  17:HandleLowPower.c **** * as provided in the license agreement accompanying the software package from
  18:HandleLowPower.c **** * which you obtained this Software (“EULA”).
  19:HandleLowPower.c **** *
  20:HandleLowPower.c **** * If no EULA applies, Cypress hereby grants you a personal, nonexclusive,
  21:HandleLowPower.c **** * non-transferable license to copy, modify, and compile the Software source
  22:HandleLowPower.c **** * code solely for use in connection with Cypress’s integrated circuit products.
  23:HandleLowPower.c **** * Any reproduction, modification, translation, compilation, or representation
  24:HandleLowPower.c **** * of this Software except as specified above is prohibited without the express
  25:HandleLowPower.c **** * written permission of Cypress.
  26:HandleLowPower.c **** *
  27:HandleLowPower.c **** * Disclaimer: THIS SOFTWARE IS PROVIDED AS-IS, WITH NO WARRANTY OF ANY KIND, 
  28:HandleLowPower.c **** * EXPRESS OR IMPLIED, INCLUDING, BUT NOT LIMITED TO, NONINFRINGEMENT, IMPLIED 
  29:HandleLowPower.c **** * WARRANTIES OF MERCHANTABILITY AND FITNESS FOR A PARTICULAR PURPOSE. Cypress 
  30:HandleLowPower.c **** * reserves the right to make changes to the Software without notice. Cypress 
ARM GAS  C:\Users\Jack\AppData\Local\Temp\cc0tVUsB.s 			page 2


  31:HandleLowPower.c **** * does not assume any liability arising out of the application or use of the 
  32:HandleLowPower.c **** * Software or any product or circuit described in the Software. Cypress does 
  33:HandleLowPower.c **** * not authorize its products for use in any products where a malfunction or 
  34:HandleLowPower.c **** * failure of the Cypress product may reasonably be expected to result in 
  35:HandleLowPower.c **** * significant property damage, injury or death (“High Risk Product”). By 
  36:HandleLowPower.c **** * including Cypress’s product in a High Risk Product, the manufacturer of such 
  37:HandleLowPower.c **** * system or application assumes all risk of such use and in doing so agrees to 
  38:HandleLowPower.c **** * indemnify Cypress against all liability.
  39:HandleLowPower.c **** *******************************************************************************/
  40:HandleLowPower.c **** 
  41:HandleLowPower.c **** #include <main.h>
  42:HandleLowPower.c **** 
  43:HandleLowPower.c **** extern uint8 shut_down_led;
  44:HandleLowPower.c **** /*******************************************************************************
  45:HandleLowPower.c **** * Function Name: HandleLowPowerMode
  46:HandleLowPower.c **** ********************************************************************************
  47:HandleLowPower.c **** * Summary:
  48:HandleLowPower.c **** *        This function puts the BLESS in deep sleep mode and CPU to sleep mode. 
  49:HandleLowPower.c **** * System will resume from here when it wakes from user button press.
  50:HandleLowPower.c **** *
  51:HandleLowPower.c **** * Parameters:
  52:HandleLowPower.c **** *  void
  53:HandleLowPower.c **** *
  54:HandleLowPower.c **** * Return:
  55:HandleLowPower.c **** *  void
  56:HandleLowPower.c **** *
  57:HandleLowPower.c **** *******************************************************************************/
  58:HandleLowPower.c **** void HandleLowPowerMode(void)
  59:HandleLowPower.c **** {
  28              		.loc 1 59 0
  29              		.cfi_startproc
  30              		@ args = 0, pretend = 0, frame = 8
  31              		@ frame_needed = 1, uses_anonymous_args = 0
  32 0000 90B5     		push	{r4, r7, lr}
  33              		.cfi_def_cfa_offset 12
  34              		.cfi_offset 4, -12
  35              		.cfi_offset 7, -8
  36              		.cfi_offset 14, -4
  37 0002 83B0     		sub	sp, sp, #12
  38              		.cfi_def_cfa_offset 24
  39 0004 00AF     		add	r7, sp, #0
  40              		.cfi_def_cfa_register 7
  60:HandleLowPower.c **** 	#ifdef ENABLE_LOW_POWER_MODE
  61:HandleLowPower.c **** 		/* Local variable to store the status of BLESS Hardware block */
  62:HandleLowPower.c **** 		CYBLE_LP_MODE_T sleepMode;
  63:HandleLowPower.c **** 		CYBLE_BLESS_STATE_T blessState;
  64:HandleLowPower.c **** 		
  65:HandleLowPower.c **** 		#ifdef CAPSENSE_ENABLED
  66:HandleLowPower.c **** 		/* Put CapSense to Sleep*/
  67:HandleLowPower.c **** 		CapSense_Sleep();
  41              		.loc 1 67 0
  42 0006 FFF7FEFF 		bl	CapSense_Sleep
  68:HandleLowPower.c **** 		#endif
  69:HandleLowPower.c **** 		
  70:HandleLowPower.c **** 		/* Put BLESS into Deep Sleep and check the return status */
  71:HandleLowPower.c **** 		sleepMode = CyBle_EnterLPM(CYBLE_BLESS_DEEPSLEEP);
  43              		.loc 1 71 0
ARM GAS  C:\Users\Jack\AppData\Local\Temp\cc0tVUsB.s 			page 3


  44 000a FC1D     		adds	r4, r7, #7
  45 000c 0320     		movs	r0, #3
  46 000e FFF7FEFF 		bl	CyBle_EnterLPM
  47 0012 0300     		movs	r3, r0
  48 0014 2370     		strb	r3, [r4]
  72:HandleLowPower.c **** 		
  73:HandleLowPower.c **** 		/* Disable global interrupt to prevent changes from any other interrupt ISR */
  74:HandleLowPower.c **** 		CyGlobalIntDisable;
  49              		.loc 1 74 0
  50              		.syntax divided
  51              	@ 74 "HandleLowPower.c" 1
  52 0016 72B6     		CPSID   i
  53              	@ 0 "" 2
  75:HandleLowPower.c **** 	
  76:HandleLowPower.c **** 		/* Check the Status of BLESS */
  77:HandleLowPower.c **** 		blessState = CyBle_GetBleSsState();
  54              		.loc 1 77 0
  55              		.thumb
  56              		.syntax unified
  57 0018 BC1D     		adds	r4, r7, #6
  58 001a FFF7FEFF 		bl	CyBle_GetBleSsState
  59 001e 0300     		movs	r3, r0
  60 0020 2370     		strb	r3, [r4]
  78:HandleLowPower.c **** 
  79:HandleLowPower.c **** 		if(sleepMode == CYBLE_BLESS_DEEPSLEEP)
  61              		.loc 1 79 0
  62 0022 FB1D     		adds	r3, r7, #7
  63 0024 1B78     		ldrb	r3, [r3]
  64 0026 032B     		cmp	r3, #3
  65 0028 1FD1     		bne	.L2
  80:HandleLowPower.c **** 		{
  81:HandleLowPower.c **** 		    /* If the ECO has started or the BLESS can go to Deep Sleep, then place CPU 
  82:HandleLowPower.c **** 			* to Deep Sleep */
  83:HandleLowPower.c **** 			if(blessState == CYBLE_BLESS_STATE_ECO_ON || blessState == CYBLE_BLESS_STATE_DEEPSLEEP)
  66              		.loc 1 83 0
  67 002a BB1D     		adds	r3, r7, #6
  68 002c 1B78     		ldrb	r3, [r3]
  69 002e 042B     		cmp	r3, #4
  70 0030 03D0     		beq	.L3
  71              		.loc 1 83 0 is_stmt 0 discriminator 1
  72 0032 BB1D     		adds	r3, r7, #6
  73 0034 1B78     		ldrb	r3, [r3]
  74 0036 062B     		cmp	r3, #6
  75 0038 1DD1     		bne	.L6
  76              	.L3:
  84:HandleLowPower.c **** 		    {
  85:HandleLowPower.c **** 				if(shut_down_led)
  77              		.loc 1 85 0 is_stmt 1
  78 003a 124B     		ldr	r3, .L7
  79 003c 1B78     		ldrb	r3, [r3]
  80 003e 002B     		cmp	r3, #0
  81 0040 0AD0     		beq	.L5
  86:HandleLowPower.c **** 				{
  87:HandleLowPower.c **** 					/* Put PrISM modules to sleep */
  88:HandleLowPower.c **** 					PrISM_1_Sleep();
  82              		.loc 1 88 0
  83 0042 FFF7FEFF 		bl	PrISM_1_Sleep
ARM GAS  C:\Users\Jack\AppData\Local\Temp\cc0tVUsB.s 			page 4


  89:HandleLowPower.c **** 					PrISM_2_Sleep();
  84              		.loc 1 89 0
  85 0046 FFF7FEFF 		bl	PrISM_2_Sleep
  90:HandleLowPower.c **** 					
  91:HandleLowPower.c **** 					/* Place CPU to Deep sleep only when the RGB PrISM module is not 
  92:HandleLowPower.c **** 					* active (indicated by flag 'shut_down_led'). 
  93:HandleLowPower.c **** 					* If RGB PrISM is active, then the CPU should only be placed in 
  94:HandleLowPower.c **** 					* Sleep to allow the PrISM to function and control the color 
  95:HandleLowPower.c **** 					* and Intensity */
  96:HandleLowPower.c **** 			        CySysPmDeepSleep();
  86              		.loc 1 96 0
  87 004a FFF7FEFF 		bl	CySysPmDeepSleep
  97:HandleLowPower.c **** 					
  98:HandleLowPower.c **** 					/* After system wakes up, wake up the PrISM modules*/
  99:HandleLowPower.c **** 					PrISM_1_Wakeup();
  88              		.loc 1 99 0
  89 004e FFF7FEFF 		bl	PrISM_1_Wakeup
 100:HandleLowPower.c **** 					PrISM_2_Wakeup();
  90              		.loc 1 100 0
  91 0052 FFF7FEFF 		bl	PrISM_2_Wakeup
  92 0056 0EE0     		b	.L6
  93              	.L5:
 101:HandleLowPower.c **** 				}
 102:HandleLowPower.c **** 				else
 103:HandleLowPower.c **** 				{
 104:HandleLowPower.c **** 					/* If the system is controlling RGB LED, then PrISM needs to be running. 
 105:HandleLowPower.c **** 					* Put CPU to sleep only */
 106:HandleLowPower.c **** 					CySysClkWriteImoFreq(IMO_FREQUENCY_3MHZ);
  94              		.loc 1 106 0
  95 0058 0320     		movs	r0, #3
  96 005a FFF7FEFF 		bl	CySysClkWriteImoFreq
 107:HandleLowPower.c **** 					CySysPmSleep();
  97              		.loc 1 107 0
  98 005e FFF7FEFF 		bl	CySysPmSleep
 108:HandleLowPower.c **** 					CySysClkWriteImoFreq(IMO_FREQUENCY_12MHZ);
  99              		.loc 1 108 0
 100 0062 0C20     		movs	r0, #12
 101 0064 FFF7FEFF 		bl	CySysClkWriteImoFreq
 102 0068 05E0     		b	.L6
 103              	.L2:
 109:HandleLowPower.c **** 
 110:HandleLowPower.c **** 				}
 111:HandleLowPower.c **** 		 	}
 112:HandleLowPower.c **** 		}
 113:HandleLowPower.c **** 		else
 114:HandleLowPower.c **** 		{
 115:HandleLowPower.c **** 		    if(blessState != CYBLE_BLESS_STATE_EVENT_CLOSE)
 104              		.loc 1 115 0
 105 006a BB1D     		adds	r3, r7, #6
 106 006c 1B78     		ldrb	r3, [r3]
 107 006e 022B     		cmp	r3, #2
 108 0070 01D0     		beq	.L6
 116:HandleLowPower.c **** 		    {
 117:HandleLowPower.c **** 				/* If the BLESS hardware block cannot go to Deep Sleep and BLE Event has not 
 118:HandleLowPower.c **** 				* closed yet, then place CPU to Sleep */
 119:HandleLowPower.c **** 		        CySysPmSleep();
 109              		.loc 1 119 0
ARM GAS  C:\Users\Jack\AppData\Local\Temp\cc0tVUsB.s 			page 5


 110 0072 FFF7FEFF 		bl	CySysPmSleep
 111              	.L6:
 120:HandleLowPower.c **** 		    }
 121:HandleLowPower.c **** 		}
 122:HandleLowPower.c **** 		
 123:HandleLowPower.c **** 		/* Re-enable global interrupt mask after wakeup */
 124:HandleLowPower.c **** 		CyGlobalIntEnable;
 112              		.loc 1 124 0
 113              		.syntax divided
 114              	@ 124 "HandleLowPower.c" 1
 115 0076 62B6     		CPSIE   i
 116              	@ 0 "" 2
 125:HandleLowPower.c **** 		
 126:HandleLowPower.c **** 		#ifdef CAPSENSE_ENABLED
 127:HandleLowPower.c **** 		/* Wakeup CapSense Block */
 128:HandleLowPower.c **** 		CapSense_Wakeup();
 117              		.loc 1 128 0
 118              		.thumb
 119              		.syntax unified
 120 0078 FFF7FEFF 		bl	CapSense_Wakeup
 129:HandleLowPower.c **** 		#endif
 130:HandleLowPower.c **** 		
 131:HandleLowPower.c **** 	#endif
 132:HandleLowPower.c **** }
 121              		.loc 1 132 0
 122 007c C046     		nop
 123 007e BD46     		mov	sp, r7
 124 0080 03B0     		add	sp, sp, #12
 125              		@ sp needed
 126 0082 90BD     		pop	{r4, r7, pc}
 127              	.L8:
 128              		.align	2
 129              	.L7:
 130 0084 00000000 		.word	shut_down_led
 131              		.cfi_endproc
 132              	.LFE35:
 133              		.size	HandleLowPowerMode, .-HandleLowPowerMode
 134              		.section	.text.MyISR,"ax",%progbits
 135              		.align	2
 136              		.global	MyISR
 137              		.code	16
 138              		.thumb_func
 139              		.type	MyISR, %function
 140              	MyISR:
 141              	.LFB36:
 133:HandleLowPower.c **** 
 134:HandleLowPower.c **** /*******************************************************************************
 135:HandleLowPower.c **** * Function Name: MyISR
 136:HandleLowPower.c **** ********************************************************************************
 137:HandleLowPower.c **** * Summary:
 138:HandleLowPower.c **** *        ISR routine for isr_button. System enters here after CPU wakeup.
 139:HandleLowPower.c **** * Clears pending interrupt.
 140:HandleLowPower.c **** *
 141:HandleLowPower.c **** * Parameters:
 142:HandleLowPower.c **** *  void
 143:HandleLowPower.c **** *
 144:HandleLowPower.c **** * Return:
ARM GAS  C:\Users\Jack\AppData\Local\Temp\cc0tVUsB.s 			page 6


 145:HandleLowPower.c **** *  void
 146:HandleLowPower.c **** *
 147:HandleLowPower.c **** *******************************************************************************/
 148:HandleLowPower.c **** CY_ISR(MyISR)
 149:HandleLowPower.c **** {
 142              		.loc 1 149 0
 143              		.cfi_startproc
 144              		@ args = 0, pretend = 0, frame = 0
 145              		@ frame_needed = 1, uses_anonymous_args = 0
 146 0000 80B5     		push	{r7, lr}
 147              		.cfi_def_cfa_offset 8
 148              		.cfi_offset 7, -8
 149              		.cfi_offset 14, -4
 150 0002 00AF     		add	r7, sp, #0
 151              		.cfi_def_cfa_register 7
 150:HandleLowPower.c **** 	/* Clear Pending interrupts */
 151:HandleLowPower.c **** 	isr_button_ClearPending();
 152              		.loc 1 151 0
 153 0004 FFF7FEFF 		bl	isr_button_ClearPending
 152:HandleLowPower.c **** 	
 153:HandleLowPower.c **** 	User_Button_ClearInterrupt();
 154              		.loc 1 153 0
 155 0008 FFF7FEFF 		bl	User_Button_ClearInterrupt
 154:HandleLowPower.c **** }
 156              		.loc 1 154 0
 157 000c C046     		nop
 158 000e BD46     		mov	sp, r7
 159              		@ sp needed
 160 0010 80BD     		pop	{r7, pc}
 161              		.cfi_endproc
 162              	.LFE36:
 163              		.size	MyISR, .-MyISR
 164 0012 C046     		.text
 165              	.Letext0:
 166              		.file 2 "Generated_Source\\PSoC4/cytypes.h"
 167              		.file 3 "Generated_Source\\PSoC4/BLE_Stack.h"