ARM GAS  C:\Users\Jack\AppData\Local\Temp\ccmLm21n.s 			page 1


   1              		.syntax unified
   2              		.cpu cortex-m0
   3              		.fpu softvfp
   4              		.eabi_attribute 20, 1
   5              		.eabi_attribute 21, 1
   6              		.eabi_attribute 23, 3
   7              		.eabi_attribute 24, 1
   8              		.eabi_attribute 25, 1
   9              		.eabi_attribute 26, 1
  10              		.eabi_attribute 30, 6
  11              		.eabi_attribute 34, 0
  12              		.eabi_attribute 18, 4
  13              		.thumb
  14              		.syntax unified
  15              		.file	"main.c"
  16              		.text
  17              	.Ltext0:
  18              		.cfi_sections	.debug_frame
  19              		.global	initializeCapSenseBaseline
  20              		.data
  21              		.type	initializeCapSenseBaseline, %object
  22              		.size	initializeCapSenseBaseline, 1
  23              	initializeCapSenseBaseline:
  24 0000 01       		.byte	1
  25              		.section	.text.main,"ax",%progbits
  26              		.align	2
  27              		.global	main
  28              		.code	16
  29              		.thumb_func
  30              		.type	main, %function
  31              	main:
  32              	.LFB35:
  33              		.file 1 "main.c"
   1:main.c        **** /******************************************************************************
   2:main.c        **** * Project Name		: PSoC_4_BLE_CapSense_Slider_LED
   3:main.c        **** * File Name			: main.c
   4:main.c        **** * Version 			: 1.0
   5:main.c        **** * Device Used		: CY8C4248LQI-BL583
   6:main.c        **** * Software Used		: PSoC Creator 4.2
   7:main.c        **** * Compiler    		: ARM GCC 5.4.1
   8:main.c        **** * Related Hardware	: CY8CKIT-042-BLE-A Bluetooth Low Energy Pioneer Kit
   9:main.c        **** ******************************************************************************
  10:main.c        **** * Copyright (2018), Cypress Semiconductor Corporation. All rights reserved.
  11:main.c        **** *******************************************************************************
  12:main.c        **** * This software, including source code, documentation and related materials
  13:main.c        **** * (“Software”), is owned by Cypress Semiconductor Corporation or one of its
  14:main.c        **** * subsidiaries (“Cypress”) and is protected by and subject to worldwide patent
  15:main.c        **** * protection (United States and foreign), United States copyright laws and
  16:main.c        **** * international treaty provisions. Therefore, you may use this Software only
  17:main.c        **** * as provided in the license agreement accompanying the software package from
  18:main.c        **** * which you obtained this Software (“EULA”).
  19:main.c        **** *
  20:main.c        **** * If no EULA applies, Cypress hereby grants you a personal, nonexclusive,
  21:main.c        **** * non-transferable license to copy, modify, and compile the Software source
  22:main.c        **** * code solely for use in connection with Cypress’s integrated circuit products.
  23:main.c        **** * Any reproduction, modification, translation, compilation, or representation
  24:main.c        **** * of this Software except as specified above is prohibited without the express
ARM GAS  C:\Users\Jack\AppData\Local\Temp\ccmLm21n.s 			page 2


  25:main.c        **** * written permission of Cypress.
  26:main.c        **** *
  27:main.c        **** * Disclaimer: THIS SOFTWARE IS PROVIDED AS-IS, WITH NO WARRANTY OF ANY KIND, 
  28:main.c        **** * EXPRESS OR IMPLIED, INCLUDING, BUT NOT LIMITED TO, NONINFRINGEMENT, IMPLIED 
  29:main.c        **** * WARRANTIES OF MERCHANTABILITY AND FITNESS FOR A PARTICULAR PURPOSE. Cypress 
  30:main.c        **** * reserves the right to make changes to the Software without notice. Cypress 
  31:main.c        **** * does not assume any liability arising out of the application or use of the 
  32:main.c        **** * Software or any product or circuit described in the Software. Cypress does 
  33:main.c        **** * not authorize its products for use in any products where a malfunction or 
  34:main.c        **** * failure of the Cypress product may reasonably be expected to result in 
  35:main.c        **** * significant property damage, injury or death (“High Risk Product”). By 
  36:main.c        **** * including Cypress’s product in a High Risk Product, the manufacturer of such 
  37:main.c        **** * system or application assumes all risk of such use and in doing so agrees to 
  38:main.c        **** * indemnify Cypress against all liability.
  39:main.c        **** *******************************************************************************/
  40:main.c        **** 
  41:main.c        **** /******************************************************************************
  42:main.c        **** *                           THEORY OF OPERATION
  43:main.c        **** *******************************************************************************
  44:main.c        **** * This project will showcase the capability of PSoC 4 BLE to communicate 
  45:main.c        **** * bi-directionally with a BLE Central device over custom services. The CapSense 
  46:main.c        **** * custom service allows notifications to be sent to the central device when 
  47:main.c        **** * notifications are enabled. On the other hand, the RGB LED custom service allows 
  48:main.c        **** * read and write of attributes under the RGB characteristics.
  49:main.c        **** * This project utilizes CapSense component to check finger position on slider 
  50:main.c        **** * and report this to the central device over BLE. On the other hand, the control  
  51:main.c        **** * values sent to PSoC 4 BLE are converted to respective color and intensity on the   
  52:main.c        **** * onboard RGB LED. The BLE central device can be any BLE central device, including  
  53:main.c        **** * CySmart mobile app or CySmart PC tool. 
  54:main.c        **** * This project also includes low power mode operation, ideal for battery operated 
  55:main.c        **** * devices. The project utilizes Deep Sleep feature of both BLESS and CPU to remain 
  56:main.c        **** * in low power mode as much as possible, while maintaining the BLE connection and  
  57:main.c        **** * data transfer. This allows the device to run on coin cell battery for long time.
  58:main.c        **** *
  59:main.c        **** * Note:
  60:main.c        **** * The programming pins have been configured as GPIO, and not SWD. This is because 
  61:main.c        **** * the silicon consumes extra power through the pins when the programming pins are
  62:main.c        **** * configured for SWD. To prevent the leakage of power, the pins have been set 
  63:main.c        **** * to GPIO. With this setting, the kit can still be acquired by PSoC Creator or
  64:main.c        **** * PSoC Programmer software tools for programming, but the project cannot be 
  65:main.c        **** * externally debugged. To re-enable debugging, go to PSoC_4_BLE_CapSense_Slider_LED.cydwr 
  66:main.c        **** * from Workspace Explorer, go to Systems tab, and set the Debug Select option to 'SWD'.
  67:main.c        **** * Build and program this project to enable external Debugging.
  68:main.c        **** *
  69:main.c        **** * Refer to CY8CKIT-042-BLE-A Pioneer Kit guide for details.
  70:main.c        **** *******************************************************************************
  71:main.c        **** * Hardware connection required for testing -
  72:main.c        **** * Slider pins 	- P2[1]-P2[5] (hard-wired on the BLE Pioneer kit)
  73:main.c        **** * Cmod pin		- P4[0] (hard-wired on the PSoC 4 BLE module)
  74:main.c        **** * R-G-B LED 	- P2[6], P3[6] and P3[7] (hard-wired on the BLE Pioneer kit)
  75:main.c        **** * User Switch	- P2[7] (hard-wired on the BLE Pioneer kit)
  76:main.c        **** ******************************************************************************/
  77:main.c        **** #include <main.h>
  78:main.c        **** 
  79:main.c        **** /* This flag is used by application to know whether a Central 
  80:main.c        **** * device has been connected. This is updated in BLE event callback 
  81:main.c        **** * function*/
ARM GAS  C:\Users\Jack\AppData\Local\Temp\ccmLm21n.s 			page 3


  82:main.c        **** extern uint8 deviceConnected;
  83:main.c        **** 
  84:main.c        **** /*This flag is set when the Central device writes to CCCD of the 
  85:main.c        **** * CapSense slider Characteristic to enable notifications */
  86:main.c        **** extern uint8 sendCapSenseSliderNotifications;
  87:main.c        **** 
  88:main.c        **** /* 'restartAdvertisement' flag is used to restart advertisement */
  89:main.c        **** extern uint8 restartAdvertisement;
  90:main.c        **** 
  91:main.c        **** /* 'initializeCapSenseBaseline' flag is used to call the function that initializes 
  92:main.c        **** * all CapSense baselines, once. The baseline is initialized when the first advertisement 
  93:main.c        **** * is started. This is done so that any external disturbance while powering the kit does 
  94:main.c        **** * not influence the baseline value, that may cause wrong readings. */
  95:main.c        **** uint8 initializeCapSenseBaseline = TRUE;
  96:main.c        **** 
  97:main.c        **** /*******************************************************************************
  98:main.c        **** * Function Name: main
  99:main.c        **** ********************************************************************************
 100:main.c        **** * Summary:
 101:main.c        **** *        System entrance point. This calls the initializing function and
 102:main.c        **** * continuously processes BLE and CapSense events.
 103:main.c        **** *
 104:main.c        **** * Parameters:
 105:main.c        **** *  void
 106:main.c        **** *
 107:main.c        **** * Return:
 108:main.c        **** *  int
 109:main.c        **** *
 110:main.c        **** 
 111:main.c        **** *******************************************************************************/
 112:main.c        **** int main()
 113:main.c        **** {
  34              		.loc 1 113 0
  35              		.cfi_startproc
  36              		@ args = 0, pretend = 0, frame = 0
  37              		@ frame_needed = 1, uses_anonymous_args = 0
  38 0000 80B5     		push	{r7, lr}
  39              		.cfi_def_cfa_offset 8
  40              		.cfi_offset 7, -8
  41              		.cfi_offset 14, -4
  42 0002 00AF     		add	r7, sp, #0
  43              		.cfi_def_cfa_register 7
 114:main.c        **** 	/* This function will initialize the system resources such as BLE and CapSense */
 115:main.c        ****     InitializeSystem();
  44              		.loc 1 115 0
  45 0004 FFF7FEFF 		bl	InitializeSystem
  46              	.L5:
 116:main.c        **** 	
 117:main.c        ****     for(;;)
 118:main.c        ****     {
 119:main.c        ****         /*Process event callback to handle BLE events. The events generated and 
 120:main.c        **** 		* used for this application are inside the 'CustomEventHandler' routine*/
 121:main.c        ****         CyBle_ProcessEvents();
  47              		.loc 1 121 0
  48 0008 FFF7FEFF 		bl	CyBle_ProcessEvents
 122:main.c        **** 		
 123:main.c        **** 		/* Updated LED for status during BLE active states */
ARM GAS  C:\Users\Jack\AppData\Local\Temp\ccmLm21n.s 			page 4


 124:main.c        **** 		HandleStatusLED();
  49              		.loc 1 124 0
  50 000c FFF7FEFF 		bl	HandleStatusLED
 125:main.c        **** 		
 126:main.c        **** 		if(TRUE == deviceConnected)
  51              		.loc 1 126 0
  52 0010 134B     		ldr	r3, .L6
  53 0012 1B78     		ldrb	r3, [r3]
  54 0014 012B     		cmp	r3, #1
  55 0016 0CD1     		bne	.L2
 127:main.c        **** 		{
 128:main.c        **** 			/* After the connection, send new connection parameter to the Client device 
 129:main.c        **** 			* to run the BLE communication on desired interval. This affects the data rate 
 130:main.c        **** 			* and power consumption. High connection interval will have lower data rate but 
 131:main.c        **** 			* lower power consumption. Low connection interval will have higher data rate at
 132:main.c        **** 			* expense of higher power. This function is called only once per connection. */
 133:main.c        **** 			UpdateConnectionParam();
  56              		.loc 1 133 0
  57 0018 FFF7FEFF 		bl	UpdateConnectionParam
 134:main.c        **** 			
 135:main.c        **** 			/* Send CapSense Slider data when respective notification is enabled */
 136:main.c        **** 			if(sendCapSenseSliderNotifications == CCCD_NTF_BIT_MASK)
  58              		.loc 1 136 0
  59 001c 114B     		ldr	r3, .L6+4
  60 001e 1B78     		ldrb	r3, [r3]
  61 0020 012B     		cmp	r3, #1
  62 0022 06D1     		bne	.L2
 137:main.c        **** 			{
 138:main.c        **** 				#ifdef ENABLE_LOW_POWER_MODE
 139:main.c        ****                 if(CYBLE_BLESS_STATE_ECO_STABLE == CyBle_GetBleSsState())
  63              		.loc 1 139 0
  64 0024 FFF7FEFF 		bl	CyBle_GetBleSsState
  65 0028 0300     		movs	r3, r0
  66 002a 052B     		cmp	r3, #5
  67 002c 01D1     		bne	.L2
 140:main.c        ****                 #endif
 141:main.c        **** 				{
 142:main.c        **** 					/* Check for CapSense slider swipe and send data accordingly */
 143:main.c        **** 					HandleCapSenseSlider();
  68              		.loc 1 143 0
  69 002e FFF7FEFF 		bl	HandleCapSenseSlider
  70              	.L2:
 144:main.c        **** 				}
 145:main.c        **** 			}
 146:main.c        **** 		}
 147:main.c        **** 		
 148:main.c        **** 		#ifdef ENABLE_LOW_POWER_MODE
 149:main.c        **** 			/* Put system to Deep sleep, including BLESS, and wakeup on interrupt. 
 150:main.c        **** 			* The source of the interrupt can either be BLESS Link Layer in case of 
 151:main.c        **** 			* BLE advertisement and connection or by User Button press during BLE 
 152:main.c        **** 			* disconnection */
 153:main.c        **** 			HandleLowPowerMode();
  71              		.loc 1 153 0
  72 0032 FFF7FEFF 		bl	HandleLowPowerMode
 154:main.c        **** 		#endif
 155:main.c        **** 		
 156:main.c        **** 		if(restartAdvertisement)
ARM GAS  C:\Users\Jack\AppData\Local\Temp\ccmLm21n.s 			page 5


  73              		.loc 1 156 0
  74 0036 0C4B     		ldr	r3, .L6+8
  75 0038 1B78     		ldrb	r3, [r3]
  76 003a 002B     		cmp	r3, #0
  77 003c E4D0     		beq	.L5
 157:main.c        **** 		{
 158:main.c        **** 			/* Reset 'restartAdvertisement' flag*/
 159:main.c        **** 			restartAdvertisement = FALSE;
  78              		.loc 1 159 0
  79 003e 0A4B     		ldr	r3, .L6+8
  80 0040 0022     		movs	r2, #0
  81 0042 1A70     		strb	r2, [r3]
 160:main.c        **** 			
 161:main.c        **** 			/* If CapSense Initialize Baseline API has not been called yet, call the
 162:main.c        **** 			* API and reset the flag. */
 163:main.c        **** 			if(initializeCapSenseBaseline)
  82              		.loc 1 163 0
  83 0044 094B     		ldr	r3, .L6+12
  84 0046 1B78     		ldrb	r3, [r3]
  85 0048 002B     		cmp	r3, #0
  86 004a 04D0     		beq	.L4
 164:main.c        **** 			{
 165:main.c        **** 				/* Reset 'initializeCapSenseBaseline' flag*/
 166:main.c        **** 				initializeCapSenseBaseline = FALSE;
  87              		.loc 1 166 0
  88 004c 074B     		ldr	r3, .L6+12
  89 004e 0022     		movs	r2, #0
  90 0050 1A70     		strb	r2, [r3]
 167:main.c        **** 				
 168:main.c        **** 				/* Initialize all CapSense Baselines */
 169:main.c        **** 				CapSense_InitializeAllBaselines();
  91              		.loc 1 169 0
  92 0052 FFF7FEFF 		bl	CapSense_InitializeAllBaselines
  93              	.L4:
 170:main.c        **** 			}
 171:main.c        **** 
 172:main.c        **** 			/* Start Advertisement and enter Discoverable mode*/
 173:main.c        **** 			CyBle_GappStartAdvertisement(CYBLE_ADVERTISING_FAST);	
  94              		.loc 1 173 0
  95 0056 0020     		movs	r0, #0
  96 0058 FFF7FEFF 		bl	CyBle_GappStartAdvertisement
 174:main.c        **** 		}
 175:main.c        ****     }	/* End of for(;;) */
  97              		.loc 1 175 0
  98 005c D4E7     		b	.L5
  99              	.L7:
 100 005e C046     		.align	2
 101              	.L6:
 102 0060 00000000 		.word	deviceConnected
 103 0064 00000000 		.word	sendCapSenseSliderNotifications
 104 0068 00000000 		.word	restartAdvertisement
 105 006c 00000000 		.word	initializeCapSenseBaseline
 106              		.cfi_endproc
 107              	.LFE35:
 108              		.size	main, .-main
 109              		.section	.text.InitializeSystem,"ax",%progbits
 110              		.align	2
ARM GAS  C:\Users\Jack\AppData\Local\Temp\ccmLm21n.s 			page 6


 111              		.global	InitializeSystem
 112              		.code	16
 113              		.thumb_func
 114              		.type	InitializeSystem, %function
 115              	InitializeSystem:
 116              	.LFB36:
 176:main.c        **** }
 177:main.c        **** 
 178:main.c        **** /*******************************************************************************
 179:main.c        **** * Function Name: InitializeSystem
 180:main.c        **** ********************************************************************************
 181:main.c        **** * Summary:
 182:main.c        **** *        Start the components and initialize system 
 183:main.c        **** *
 184:main.c        **** * Parameters:
 185:main.c        **** *  void
 186:main.c        **** *
 187:main.c        **** * Return:
 188:main.c        **** *  void
 189:main.c        **** *
 190:main.c        **** *******************************************************************************/
 191:main.c        **** void InitializeSystem(void)
 192:main.c        **** {
 117              		.loc 1 192 0
 118              		.cfi_startproc
 119              		@ args = 0, pretend = 0, frame = 0
 120              		@ frame_needed = 1, uses_anonymous_args = 0
 121 0000 80B5     		push	{r7, lr}
 122              		.cfi_def_cfa_offset 8
 123              		.cfi_offset 7, -8
 124              		.cfi_offset 14, -4
 125 0002 00AF     		add	r7, sp, #0
 126              		.cfi_def_cfa_register 7
 193:main.c        **** 	/* Enable global interrupt mask */
 194:main.c        **** 	CyGlobalIntEnable; 
 127              		.loc 1 194 0
 128              		.syntax divided
 129              	@ 194 "main.c" 1
 130 0004 62B6     		CPSIE   i
 131              	@ 0 "" 2
 195:main.c        **** 			
 196:main.c        **** 	/* Start BLE component and register the CustomEventHandler function. This 
 197:main.c        **** 	* function exposes the events from BLE component for application use */
 198:main.c        ****     CyBle_Start(CustomEventHandler);
 132              		.loc 1 198 0
 133              		.thumb
 134              		.syntax unified
 135 0006 154B     		ldr	r3, .L9
 136 0008 1800     		movs	r0, r3
 137 000a FFF7FEFF 		bl	CyBle_Start
 199:main.c        **** 	
 200:main.c        **** 	/* Start the PrISM component for LED control*/
 201:main.c        ****     PrISM_1_Start();
 138              		.loc 1 201 0
 139 000e FFF7FEFF 		bl	PrISM_1_Start
 202:main.c        ****     PrISM_2_Start();
 140              		.loc 1 202 0
ARM GAS  C:\Users\Jack\AppData\Local\Temp\ccmLm21n.s 			page 7


 141 0012 FFF7FEFF 		bl	PrISM_2_Start
 203:main.c        **** 	
 204:main.c        **** 	/* The RGB LED on BLE Pioneer kit is active low. Drive HIGH on 
 205:main.c        **** 		pins for OFF and drive LOW on pins for ON*/
 206:main.c        **** 	PrISM_1_WritePulse0(RGB_LED_OFF);
 142              		.loc 1 206 0
 143 0016 FF20     		movs	r0, #255
 144 0018 FFF7FEFF 		bl	PrISM_1_WritePulse0
 207:main.c        **** 	PrISM_1_WritePulse1(RGB_LED_OFF);
 145              		.loc 1 207 0
 146 001c FF20     		movs	r0, #255
 147 001e FFF7FEFF 		bl	PrISM_1_WritePulse1
 208:main.c        **** 	PrISM_2_WritePulse0(RGB_LED_OFF);
 148              		.loc 1 208 0
 149 0022 FF20     		movs	r0, #255
 150 0024 FFF7FEFF 		bl	PrISM_2_WritePulse0
 209:main.c        **** 	
 210:main.c        **** 	/* Set Drive mode of output pins from HiZ to Strong */
 211:main.c        **** 	RED_SetDriveMode(RED_DM_STRONG);
 151              		.loc 1 211 0
 152 0028 0620     		movs	r0, #6
 153 002a FFF7FEFF 		bl	RED_SetDriveMode
 212:main.c        **** 	GREEN_SetDriveMode(GREEN_DM_STRONG);
 154              		.loc 1 212 0
 155 002e 0620     		movs	r0, #6
 156 0030 FFF7FEFF 		bl	GREEN_SetDriveMode
 213:main.c        **** 	BLUE_SetDriveMode(BLUE_DM_STRONG);
 157              		.loc 1 213 0
 158 0034 0620     		movs	r0, #6
 159 0036 FFF7FEFF 		bl	BLUE_SetDriveMode
 214:main.c        **** 	
 215:main.c        **** 	/* Start the Button ISR to allow wakeup from sleep */
 216:main.c        **** 	isr_button_StartEx(MyISR);
 160              		.loc 1 216 0
 161 003a 094B     		ldr	r3, .L9+4
 162 003c 1800     		movs	r0, r3
 163 003e FFF7FEFF 		bl	isr_button_StartEx
 217:main.c        **** 	
 218:main.c        **** 	#ifdef CAPSENSE_ENABLED
 219:main.c        **** 	/*Initialize CapSense component and initialize baselines*/
 220:main.c        **** 	CapSense_Start();
 164              		.loc 1 220 0
 165 0042 FFF7FEFF 		bl	CapSense_Start
 221:main.c        **** 	CapSense_InitializeAllBaselines();
 166              		.loc 1 221 0
 167 0046 FFF7FEFF 		bl	CapSense_InitializeAllBaselines
 222:main.c        **** 	#endif
 223:main.c        **** 	
 224:main.c        **** 	/* Set the Watchdog Interrupt vector to the address of Interrupt routine 
 225:main.c        **** 	* WDT_INT_Handler. This routine counts the 3 seconds for LED ON state during
 226:main.c        **** 	* connection. */
 227:main.c        **** 	CyIntSetVector(WATCHDOG_INT_VEC_NUM, &WDT_INT_Handler);
 168              		.loc 1 227 0
 169 004a 064B     		ldr	r3, .L9+8
 170 004c 1900     		movs	r1, r3
 171 004e 0820     		movs	r0, #8
 172 0050 FFF7FEFF 		bl	CyIntSetVector
ARM GAS  C:\Users\Jack\AppData\Local\Temp\ccmLm21n.s 			page 8


 228:main.c        **** 
 229:main.c        **** }
 173              		.loc 1 229 0
 174 0054 C046     		nop
 175 0056 BD46     		mov	sp, r7
 176              		@ sp needed
 177 0058 80BD     		pop	{r7, pc}
 178              	.L10:
 179 005a C046     		.align	2
 180              	.L9:
 181 005c 00000000 		.word	CustomEventHandler
 182 0060 00000000 		.word	MyISR
 183 0064 00000000 		.word	WDT_INT_Handler
 184              		.cfi_endproc
 185              	.LFE36:
 186              		.size	InitializeSystem, .-InitializeSystem
 187              		.section	.text.HandleCapSenseSlider,"ax",%progbits
 188              		.align	2
 189              		.global	HandleCapSenseSlider
 190              		.code	16
 191              		.thumb_func
 192              		.type	HandleCapSenseSlider, %function
 193              	HandleCapSenseSlider:
 194              	.LFB37:
 230:main.c        **** 
 231:main.c        **** /*******************************************************************************
 232:main.c        **** * Function Name: HandleCapSenseSlider
 233:main.c        **** ********************************************************************************
 234:main.c        **** * Summary:
 235:main.c        **** *        This function scans for finger position on CapSense slider, and if the  
 236:main.c        **** * position is different, triggers separate routine for BLE notification
 237:main.c        **** *
 238:main.c        **** * Parameters:
 239:main.c        **** *  void
 240:main.c        **** *
 241:main.c        **** * Return:
 242:main.c        **** *  void
 243:main.c        **** *
 244:main.c        **** *******************************************************************************/
 245:main.c        **** void HandleCapSenseSlider(void)
 246:main.c        **** {
 195              		.loc 1 246 0
 196              		.cfi_startproc
 197              		@ args = 0, pretend = 0, frame = 8
 198              		@ frame_needed = 1, uses_anonymous_args = 0
 199 0000 90B5     		push	{r4, r7, lr}
 200              		.cfi_def_cfa_offset 12
 201              		.cfi_offset 4, -12
 202              		.cfi_offset 7, -8
 203              		.cfi_offset 14, -4
 204 0002 83B0     		sub	sp, sp, #12
 205              		.cfi_def_cfa_offset 24
 206 0004 00AF     		add	r7, sp, #0
 207              		.cfi_def_cfa_register 7
 247:main.c        **** 	#ifdef CAPSENSE_ENABLED
 248:main.c        **** 	/* Last read CapSense slider position value */
 249:main.c        **** 	static uint16 lastPosition;	
ARM GAS  C:\Users\Jack\AppData\Local\Temp\ccmLm21n.s 			page 9


 250:main.c        **** 
 251:main.c        **** 	/* Present slider position read by CapSense */
 252:main.c        **** 	uint16 sliderPosition;
 253:main.c        **** 		
 254:main.c        **** 	/* Scan the slider widget */
 255:main.c        **** 	CapSense_ScanWidget(CapSense_LINEARSLIDER0__LS);
 208              		.loc 1 255 0
 209 0006 0020     		movs	r0, #0
 210 0008 FFF7FEFF 		bl	CapSense_ScanWidget
 256:main.c        **** 	
 257:main.c        **** 	/* Wait for CapSense scanning to be complete. This could take about 5 ms */
 258:main.c        **** 	while(CapSense_IsBusy())
 211              		.loc 1 258 0
 212 000c 01E0     		b	.L12
 213              	.L13:
 259:main.c        **** 	{
 260:main.c        **** 		#ifdef ENABLE_LOW_POWER_MODE
 261:main.c        **** 		/* Put CPU to Sleep while CapSense scanning is executing */
 262:main.c        **** 		CySysPmSleep();
 214              		.loc 1 262 0
 215 000e FFF7FEFF 		bl	CySysPmSleep
 216              	.L12:
 258:main.c        **** 	{
 217              		.loc 1 258 0
 218 0012 FFF7FEFF 		bl	CapSense_IsBusy
 219 0016 031E     		subs	r3, r0, #0
 220 0018 F9D1     		bne	.L13
 263:main.c        **** 		#endif
 264:main.c        **** 	}
 265:main.c        **** 	
 266:main.c        **** 	/* Update CapSense baseline for next reading*/
 267:main.c        **** 	CapSense_UpdateEnabledBaselines();
 221              		.loc 1 267 0
 222 001a FFF7FEFF 		bl	CapSense_UpdateEnabledBaselines
 268:main.c        **** 	
 269:main.c        **** 	/* Read the finger position on the slider */
 270:main.c        **** 	sliderPosition = CapSense_GetCentroidPos(CapSense_LINEARSLIDER0__LS);	
 223              		.loc 1 270 0
 224 001e BC1D     		adds	r4, r7, #6
 225 0020 0020     		movs	r0, #0
 226 0022 FFF7FEFF 		bl	CapSense_GetCentroidPos
 227 0026 0300     		movs	r3, r0
 228 0028 2380     		strh	r3, [r4]
 271:main.c        **** 
 272:main.c        **** 	/* If finger position on the slider is changed then send data as BLE notifications */
 273:main.c        **** 	if(sliderPosition != lastPosition)
 229              		.loc 1 273 0
 230 002a 0E4B     		ldr	r3, .L18
 231 002c 1B88     		ldrh	r3, [r3]
 232 002e BA1D     		adds	r2, r7, #6
 233 0030 1288     		ldrh	r2, [r2]
 234 0032 9A42     		cmp	r2, r3
 235 0034 12D0     		beq	.L17
 274:main.c        **** 	{
 275:main.c        **** 		/*If finger is detected on the slider*/
 276:main.c        **** 		if((sliderPosition == NO_FINGER) || (sliderPosition <= SLIDER_MAX_VALUE))
 236              		.loc 1 276 0
ARM GAS  C:\Users\Jack\AppData\Local\Temp\ccmLm21n.s 			page 10


 237 0036 BB1D     		adds	r3, r7, #6
 238 0038 1B88     		ldrh	r3, [r3]
 239 003a 0B4A     		ldr	r2, .L18+4
 240 003c 9342     		cmp	r3, r2
 241 003e 03D0     		beq	.L15
 242              		.loc 1 276 0 is_stmt 0 discriminator 1
 243 0040 BB1D     		adds	r3, r7, #6
 244 0042 1B88     		ldrh	r3, [r3]
 245 0044 642B     		cmp	r3, #100
 246 0046 05D8     		bhi	.L16
 247              	.L15:
 277:main.c        **** 		{
 278:main.c        **** 			/* Send data over Slider Notification */
 279:main.c        **** 			SendDataOverCapSenseNotification((uint8)sliderPosition);
 248              		.loc 1 279 0 is_stmt 1
 249 0048 BB1D     		adds	r3, r7, #6
 250 004a 1B88     		ldrh	r3, [r3]
 251 004c DBB2     		uxtb	r3, r3
 252 004e 1800     		movs	r0, r3
 253 0050 FFF7FEFF 		bl	SendDataOverCapSenseNotification
 254              	.L16:
 280:main.c        **** 
 281:main.c        **** 		}	/* if(sliderPosition != NO_FINGER) */
 282:main.c        **** 		
 283:main.c        **** 		/* Update local static variable with present finger position on slider*/
 284:main.c        **** 		lastPosition = sliderPosition;
 255              		.loc 1 284 0
 256 0054 034B     		ldr	r3, .L18
 257 0056 BA1D     		adds	r2, r7, #6
 258 0058 1288     		ldrh	r2, [r2]
 259 005a 1A80     		strh	r2, [r3]
 260              	.L17:
 285:main.c        **** 		
 286:main.c        **** 	}	/* if(sliderPosition != lastPosition) */
 287:main.c        **** 	#endif
 288:main.c        **** }
 261              		.loc 1 288 0
 262 005c C046     		nop
 263 005e BD46     		mov	sp, r7
 264 0060 03B0     		add	sp, sp, #12
 265              		@ sp needed
 266 0062 90BD     		pop	{r4, r7, pc}
 267              	.L19:
 268              		.align	2
 269              	.L18:
 270 0064 00000000 		.word	lastPosition.7605
 271 0068 FFFF0000 		.word	65535
 272              		.cfi_endproc
 273              	.LFE37:
 274              		.size	HandleCapSenseSlider, .-HandleCapSenseSlider
 275              		.bss
 276              		.align	1
 277              	lastPosition.7605:
 278 0000 0000     		.space	2
 279              		.text
 280              	.Letext0:
 281              		.file 2 "Generated_Source\\PSoC4/cytypes.h"
ARM GAS  C:\Users\Jack\AppData\Local\Temp\ccmLm21n.s 			page 11


 282              		.file 3 "Generated_Source\\PSoC4/BLE_Stack.h"