ARM GAS  C:\Users\Jack\AppData\Local\Temp\cc1zkWF2.s 			page 1


   1              		.syntax unified
   2              		.cpu cortex-m0
   3              		.fpu softvfp
   4              		.eabi_attribute 20, 1
   5              		.eabi_attribute 21, 1
   6              		.eabi_attribute 23, 3
   7              		.eabi_attribute 24, 1
   8              		.eabi_attribute 25, 1
   9              		.eabi_attribute 26, 1
  10              		.eabi_attribute 30, 6
  11              		.eabi_attribute 34, 0
  12              		.eabi_attribute 18, 4
  13              		.thumb
  14              		.syntax unified
  15              		.file	"PrISM_2.c"
  16              		.text
  17              	.Ltext0:
  18              		.cfi_sections	.debug_frame
  19              		.global	PrISM_2_initVar
  20              		.bss
  21              		.type	PrISM_2_initVar, %object
  22              		.size	PrISM_2_initVar, 1
  23              	PrISM_2_initVar:
  24 0000 00       		.space	1
  25              		.section	.text.PrISM_2_Start,"ax",%progbits
  26              		.align	2
  27              		.global	PrISM_2_Start
  28              		.code	16
  29              		.thumb_func
  30              		.type	PrISM_2_Start, %function
  31              	PrISM_2_Start:
  32              	.LFB2:
  33              		.file 1 "Generated_Source\\PSoC4\\PrISM_2.c"
   1:Generated_Source\PSoC4/PrISM_2.c **** /*******************************************************************************
   2:Generated_Source\PSoC4/PrISM_2.c **** * File Name: PrISM_2.c
   3:Generated_Source\PSoC4/PrISM_2.c **** * Version 2.20
   4:Generated_Source\PSoC4/PrISM_2.c **** *
   5:Generated_Source\PSoC4/PrISM_2.c **** * Description:
   6:Generated_Source\PSoC4/PrISM_2.c **** *  This file provides the source code of the API for the PrISM Component.
   7:Generated_Source\PSoC4/PrISM_2.c **** *
   8:Generated_Source\PSoC4/PrISM_2.c **** * Note:
   9:Generated_Source\PSoC4/PrISM_2.c **** *  The PRiSM Component consists of a 8, 16, 24, 32 - bit PrISM, it
  10:Generated_Source\PSoC4/PrISM_2.c **** *  depends on length Polynomial value and user selected Seed Value. 
  11:Generated_Source\PSoC4/PrISM_2.c **** *
  12:Generated_Source\PSoC4/PrISM_2.c **** ********************************************************************************
  13:Generated_Source\PSoC4/PrISM_2.c **** * Copyright 2008-2012, Cypress Semiconductor Corporation.  All rights reserved.
  14:Generated_Source\PSoC4/PrISM_2.c **** * You may use this file only in accordance with the license, terms, conditions, 
  15:Generated_Source\PSoC4/PrISM_2.c **** * disclaimers, and limitations in the end user license agreement accompanying 
  16:Generated_Source\PSoC4/PrISM_2.c **** * the software package with which this file was provided.
  17:Generated_Source\PSoC4/PrISM_2.c **** *******************************************************************************/
  18:Generated_Source\PSoC4/PrISM_2.c **** 
  19:Generated_Source\PSoC4/PrISM_2.c **** #include "PrISM_2.h"
  20:Generated_Source\PSoC4/PrISM_2.c **** 
  21:Generated_Source\PSoC4/PrISM_2.c **** 
  22:Generated_Source\PSoC4/PrISM_2.c **** /***************************************
  23:Generated_Source\PSoC4/PrISM_2.c **** * Local data allocation
  24:Generated_Source\PSoC4/PrISM_2.c **** ***************************************/
ARM GAS  C:\Users\Jack\AppData\Local\Temp\cc1zkWF2.s 			page 2


  25:Generated_Source\PSoC4/PrISM_2.c **** 
  26:Generated_Source\PSoC4/PrISM_2.c **** uint8 PrISM_2_initVar = 0u;
  27:Generated_Source\PSoC4/PrISM_2.c **** 
  28:Generated_Source\PSoC4/PrISM_2.c **** 
  29:Generated_Source\PSoC4/PrISM_2.c **** /*******************************************************************************
  30:Generated_Source\PSoC4/PrISM_2.c **** * FUNCTION NAME:   PrISM_2_Start
  31:Generated_Source\PSoC4/PrISM_2.c **** ********************************************************************************
  32:Generated_Source\PSoC4/PrISM_2.c **** *
  33:Generated_Source\PSoC4/PrISM_2.c **** * Summary:
  34:Generated_Source\PSoC4/PrISM_2.c **** *  The start function sets Polynomial, Seed and Pulse Density registers provided
  35:Generated_Source\PSoC4/PrISM_2.c **** *  by customizer. PrISM computation starts on rising edge of input clock.
  36:Generated_Source\PSoC4/PrISM_2.c **** *
  37:Generated_Source\PSoC4/PrISM_2.c **** * Parameters:  
  38:Generated_Source\PSoC4/PrISM_2.c **** *  None.
  39:Generated_Source\PSoC4/PrISM_2.c **** *
  40:Generated_Source\PSoC4/PrISM_2.c **** * Return:  
  41:Generated_Source\PSoC4/PrISM_2.c **** *  None.
  42:Generated_Source\PSoC4/PrISM_2.c **** *
  43:Generated_Source\PSoC4/PrISM_2.c **** * Global variables:
  44:Generated_Source\PSoC4/PrISM_2.c **** *  The PrISM_2_initVar variable is used to indicate initial
  45:Generated_Source\PSoC4/PrISM_2.c **** *  configuration of this component.  The variable is initialized to zero and
  46:Generated_Source\PSoC4/PrISM_2.c **** *  set to 1 the first time PrISM_2_Start() is called. This allows for
  47:Generated_Source\PSoC4/PrISM_2.c **** *  component initialization without re-initialization in all subsequent calls
  48:Generated_Source\PSoC4/PrISM_2.c **** *  to the PrISM_2_Start() routine. 
  49:Generated_Source\PSoC4/PrISM_2.c **** 
  50:Generated_Source\PSoC4/PrISM_2.c **** * Reentrant:
  51:Generated_Source\PSoC4/PrISM_2.c **** *  No.
  52:Generated_Source\PSoC4/PrISM_2.c **** *
  53:Generated_Source\PSoC4/PrISM_2.c **** *******************************************************************************/
  54:Generated_Source\PSoC4/PrISM_2.c **** void PrISM_2_Start(void) 
  55:Generated_Source\PSoC4/PrISM_2.c **** {
  34              		.loc 1 55 0
  35              		.cfi_startproc
  36              		@ args = 0, pretend = 0, frame = 0
  37              		@ frame_needed = 1, uses_anonymous_args = 0
  38 0000 80B5     		push	{r7, lr}
  39              		.cfi_def_cfa_offset 8
  40              		.cfi_offset 7, -8
  41              		.cfi_offset 14, -4
  42 0002 00AF     		add	r7, sp, #0
  43              		.cfi_def_cfa_register 7
  56:Generated_Source\PSoC4/PrISM_2.c ****     /* If not Initialized then initialize all required hardware and software */
  57:Generated_Source\PSoC4/PrISM_2.c ****     if(PrISM_2_initVar == 0u)
  44              		.loc 1 57 0
  45 0004 064B     		ldr	r3, .L3
  46 0006 1B78     		ldrb	r3, [r3]
  47 0008 002B     		cmp	r3, #0
  48 000a 04D1     		bne	.L2
  58:Generated_Source\PSoC4/PrISM_2.c ****     {
  59:Generated_Source\PSoC4/PrISM_2.c ****         PrISM_2_Init();
  49              		.loc 1 59 0
  50 000c FFF7FEFF 		bl	PrISM_2_Init
  60:Generated_Source\PSoC4/PrISM_2.c ****         PrISM_2_initVar = 1u;
  51              		.loc 1 60 0
  52 0010 034B     		ldr	r3, .L3
  53 0012 0122     		movs	r2, #1
  54 0014 1A70     		strb	r2, [r3]
ARM GAS  C:\Users\Jack\AppData\Local\Temp\cc1zkWF2.s 			page 3


  55              	.L2:
  61:Generated_Source\PSoC4/PrISM_2.c ****     }
  62:Generated_Source\PSoC4/PrISM_2.c ****     PrISM_2_Enable();
  56              		.loc 1 62 0
  57 0016 FFF7FEFF 		bl	PrISM_2_Enable
  63:Generated_Source\PSoC4/PrISM_2.c **** }
  58              		.loc 1 63 0
  59 001a C046     		nop
  60 001c BD46     		mov	sp, r7
  61              		@ sp needed
  62 001e 80BD     		pop	{r7, pc}
  63              	.L4:
  64              		.align	2
  65              	.L3:
  66 0020 00000000 		.word	PrISM_2_initVar
  67              		.cfi_endproc
  68              	.LFE2:
  69              		.size	PrISM_2_Start, .-PrISM_2_Start
  70              		.section	.text.PrISM_2_Init,"ax",%progbits
  71              		.align	2
  72              		.global	PrISM_2_Init
  73              		.code	16
  74              		.thumb_func
  75              		.type	PrISM_2_Init, %function
  76              	PrISM_2_Init:
  77              	.LFB3:
  64:Generated_Source\PSoC4/PrISM_2.c **** 
  65:Generated_Source\PSoC4/PrISM_2.c **** 
  66:Generated_Source\PSoC4/PrISM_2.c **** /*******************************************************************************
  67:Generated_Source\PSoC4/PrISM_2.c **** * Function Name: PrISM_2_Init
  68:Generated_Source\PSoC4/PrISM_2.c **** ********************************************************************************
  69:Generated_Source\PSoC4/PrISM_2.c **** *
  70:Generated_Source\PSoC4/PrISM_2.c **** * Summary:
  71:Generated_Source\PSoC4/PrISM_2.c **** *  Initialize component's parameters to the parameters set by user in the 
  72:Generated_Source\PSoC4/PrISM_2.c **** *  customizer of the component placed onto schematic. Usually called in 
  73:Generated_Source\PSoC4/PrISM_2.c **** *  PrISM_2_Start().
  74:Generated_Source\PSoC4/PrISM_2.c **** *
  75:Generated_Source\PSoC4/PrISM_2.c **** * Parameters:  
  76:Generated_Source\PSoC4/PrISM_2.c **** *  None.
  77:Generated_Source\PSoC4/PrISM_2.c **** *
  78:Generated_Source\PSoC4/PrISM_2.c **** * Return: 
  79:Generated_Source\PSoC4/PrISM_2.c **** *  None.
  80:Generated_Source\PSoC4/PrISM_2.c **** *
  81:Generated_Source\PSoC4/PrISM_2.c **** *******************************************************************************/
  82:Generated_Source\PSoC4/PrISM_2.c **** void PrISM_2_Init(void) 
  83:Generated_Source\PSoC4/PrISM_2.c **** {
  78              		.loc 1 83 0
  79              		.cfi_startproc
  80              		@ args = 0, pretend = 0, frame = 8
  81              		@ frame_needed = 1, uses_anonymous_args = 0
  82 0000 90B5     		push	{r4, r7, lr}
  83              		.cfi_def_cfa_offset 12
  84              		.cfi_offset 4, -12
  85              		.cfi_offset 7, -8
  86              		.cfi_offset 14, -4
  87 0002 83B0     		sub	sp, sp, #12
  88              		.cfi_def_cfa_offset 24
ARM GAS  C:\Users\Jack\AppData\Local\Temp\cc1zkWF2.s 			page 4


  89 0004 00AF     		add	r7, sp, #0
  90              		.cfi_def_cfa_register 7
  84:Generated_Source\PSoC4/PrISM_2.c ****     uint8 enableInterrupts;
  85:Generated_Source\PSoC4/PrISM_2.c ****     
  86:Generated_Source\PSoC4/PrISM_2.c ****     /* Writes Seed value, polynom value and density provided by customizer */
  87:Generated_Source\PSoC4/PrISM_2.c ****     PrISM_2_WriteSeed(PrISM_2_SEED);
  91              		.loc 1 87 0
  92 0006 FF20     		movs	r0, #255
  93 0008 FFF7FEFF 		bl	PrISM_2_WriteSeed
  88:Generated_Source\PSoC4/PrISM_2.c ****     PrISM_2_WritePolynomial(PrISM_2_POLYNOM);
  94              		.loc 1 88 0
  95 000c B820     		movs	r0, #184
  96 000e FFF7FEFF 		bl	PrISM_2_WritePolynomial
  89:Generated_Source\PSoC4/PrISM_2.c ****     PrISM_2_WritePulse0(PrISM_2_DENSITY0);
  97              		.loc 1 89 0
  98 0012 0120     		movs	r0, #1
  99 0014 FFF7FEFF 		bl	PrISM_2_WritePulse0
  90:Generated_Source\PSoC4/PrISM_2.c ****     PrISM_2_WritePulse1(PrISM_2_DENSITY1);
 100              		.loc 1 90 0
 101 0018 0120     		movs	r0, #1
 102 001a FFF7FEFF 		bl	PrISM_2_WritePulse1
  91:Generated_Source\PSoC4/PrISM_2.c ****     
  92:Generated_Source\PSoC4/PrISM_2.c ****     enableInterrupts = CyEnterCriticalSection();
 103              		.loc 1 92 0
 104 001e FC1D     		adds	r4, r7, #7
 105 0020 FFF7FEFF 		bl	CyEnterCriticalSection
 106 0024 0300     		movs	r3, r0
 107 0026 2370     		strb	r3, [r4]
  93:Generated_Source\PSoC4/PrISM_2.c ****     /* Set FIFO0_CLR bit to use FIFO0 as a simple one-byte buffer*/
  94:Generated_Source\PSoC4/PrISM_2.c ****     CY_SET_REG8(PrISM_2_AUX_CONTROL_PTR, 
 108              		.loc 1 94 0
 109 0028 104A     		ldr	r2, .L6
 110 002a 104B     		ldr	r3, .L6
 111 002c 1B78     		ldrb	r3, [r3]
 112 002e DBB2     		uxtb	r3, r3
 113 0030 0121     		movs	r1, #1
 114 0032 0B43     		orrs	r3, r1
 115 0034 DBB2     		uxtb	r3, r3
 116 0036 1370     		strb	r3, [r2]
  95:Generated_Source\PSoC4/PrISM_2.c ****                         CY_GET_REG8(PrISM_2_AUX_CONTROL_PTR) | PrISM_2_FIFO0_CLR);
  96:Generated_Source\PSoC4/PrISM_2.c ****     CyExitCriticalSection(enableInterrupts);
 117              		.loc 1 96 0
 118 0038 FB1D     		adds	r3, r7, #7
 119 003a 1B78     		ldrb	r3, [r3]
 120 003c 1800     		movs	r0, r3
 121 003e FFF7FEFF 		bl	CyExitCriticalSection
  97:Generated_Source\PSoC4/PrISM_2.c ****     
  98:Generated_Source\PSoC4/PrISM_2.c ****     #if(!PrISM_2_PULSE_TYPE_HARDCODED)
  99:Generated_Source\PSoC4/PrISM_2.c ****         /* Writes density type provided by customizer */
 100:Generated_Source\PSoC4/PrISM_2.c ****         #if(PrISM_2_GREATERTHAN_OR_EQUAL == PrISM_2_COMPARE0)
 101:Generated_Source\PSoC4/PrISM_2.c ****             PrISM_2_CONTROL_REG |= PrISM_2_CTRL_COMPARE_TYPE0_GREATER_THAN_OR_EQUAL;
 102:Generated_Source\PSoC4/PrISM_2.c ****         #else
 103:Generated_Source\PSoC4/PrISM_2.c ****             PrISM_2_CONTROL_REG &= (uint8)~PrISM_2_CTRL_COMPARE_TYPE0_GREATER_THAN_OR_EQUAL;
 122              		.loc 1 103 0
 123 0042 0B4A     		ldr	r2, .L6+4
 124 0044 0A4B     		ldr	r3, .L6+4
 125 0046 1B78     		ldrb	r3, [r3]
ARM GAS  C:\Users\Jack\AppData\Local\Temp\cc1zkWF2.s 			page 5


 126 0048 DBB2     		uxtb	r3, r3
 127 004a 0221     		movs	r1, #2
 128 004c 8B43     		bics	r3, r1
 129 004e DBB2     		uxtb	r3, r3
 130 0050 1370     		strb	r3, [r2]
 104:Generated_Source\PSoC4/PrISM_2.c ****         #endif /* End PrISM_2_COMPARE0 */    
 105:Generated_Source\PSoC4/PrISM_2.c ****     
 106:Generated_Source\PSoC4/PrISM_2.c ****         #if(PrISM_2_GREATERTHAN_OR_EQUAL == PrISM_2_COMPARE1)
 107:Generated_Source\PSoC4/PrISM_2.c ****             PrISM_2_CONTROL_REG |= PrISM_2_CTRL_COMPARE_TYPE1_GREATER_THAN_OR_EQUAL;
 108:Generated_Source\PSoC4/PrISM_2.c ****         #else
 109:Generated_Source\PSoC4/PrISM_2.c ****             PrISM_2_CONTROL_REG &= (uint8)~PrISM_2_CTRL_COMPARE_TYPE1_GREATER_THAN_OR_EQUAL;
 131              		.loc 1 109 0
 132 0052 074A     		ldr	r2, .L6+4
 133 0054 064B     		ldr	r3, .L6+4
 134 0056 1B78     		ldrb	r3, [r3]
 135 0058 DBB2     		uxtb	r3, r3
 136 005a 0421     		movs	r1, #4
 137 005c 8B43     		bics	r3, r1
 138 005e DBB2     		uxtb	r3, r3
 139 0060 1370     		strb	r3, [r2]
 110:Generated_Source\PSoC4/PrISM_2.c ****         #endif /* End PrISM_2_COMPARE1 */    
 111:Generated_Source\PSoC4/PrISM_2.c ****     #endif /* End PrISM_2_PULSE_TYPE_HARDCODED */
 112:Generated_Source\PSoC4/PrISM_2.c **** }
 140              		.loc 1 112 0
 141 0062 C046     		nop
 142 0064 BD46     		mov	sp, r7
 143 0066 03B0     		add	sp, sp, #12
 144              		@ sp needed
 145 0068 90BD     		pop	{r4, r7, pc}
 146              	.L7:
 147 006a C046     		.align	2
 148              	.L6:
 149 006c 92000F40 		.word	1074725010
 150 0070 72000F40 		.word	1074724978
 151              		.cfi_endproc
 152              	.LFE3:
 153              		.size	PrISM_2_Init, .-PrISM_2_Init
 154              		.section	.text.PrISM_2_Enable,"ax",%progbits
 155              		.align	2
 156              		.global	PrISM_2_Enable
 157              		.code	16
 158              		.thumb_func
 159              		.type	PrISM_2_Enable, %function
 160              	PrISM_2_Enable:
 161              	.LFB4:
 113:Generated_Source\PSoC4/PrISM_2.c **** 
 114:Generated_Source\PSoC4/PrISM_2.c **** 
 115:Generated_Source\PSoC4/PrISM_2.c **** /*******************************************************************************
 116:Generated_Source\PSoC4/PrISM_2.c **** * Function Name: PrISM_2_Enable
 117:Generated_Source\PSoC4/PrISM_2.c **** ********************************************************************************
 118:Generated_Source\PSoC4/PrISM_2.c **** *  
 119:Generated_Source\PSoC4/PrISM_2.c **** * Summary: 
 120:Generated_Source\PSoC4/PrISM_2.c **** *  Enables the PrISM block operation
 121:Generated_Source\PSoC4/PrISM_2.c **** *
 122:Generated_Source\PSoC4/PrISM_2.c **** * Parameters:  
 123:Generated_Source\PSoC4/PrISM_2.c **** *  None.
 124:Generated_Source\PSoC4/PrISM_2.c **** *
ARM GAS  C:\Users\Jack\AppData\Local\Temp\cc1zkWF2.s 			page 6


 125:Generated_Source\PSoC4/PrISM_2.c **** * Return: 
 126:Generated_Source\PSoC4/PrISM_2.c **** *  None.
 127:Generated_Source\PSoC4/PrISM_2.c **** *
 128:Generated_Source\PSoC4/PrISM_2.c **** *******************************************************************************/
 129:Generated_Source\PSoC4/PrISM_2.c **** void PrISM_2_Enable(void) 
 130:Generated_Source\PSoC4/PrISM_2.c **** {
 162              		.loc 1 130 0
 163              		.cfi_startproc
 164              		@ args = 0, pretend = 0, frame = 0
 165              		@ frame_needed = 1, uses_anonymous_args = 0
 166 0000 80B5     		push	{r7, lr}
 167              		.cfi_def_cfa_offset 8
 168              		.cfi_offset 7, -8
 169              		.cfi_offset 14, -4
 170 0002 00AF     		add	r7, sp, #0
 171              		.cfi_def_cfa_register 7
 131:Generated_Source\PSoC4/PrISM_2.c ****     #if(!PrISM_2_PULSE_TYPE_HARDCODED)
 132:Generated_Source\PSoC4/PrISM_2.c ****         /* Enable the PrISM computation */
 133:Generated_Source\PSoC4/PrISM_2.c ****         PrISM_2_CONTROL_REG |= PrISM_2_CTRL_ENABLE;
 172              		.loc 1 133 0
 173 0004 054A     		ldr	r2, .L9
 174 0006 054B     		ldr	r3, .L9
 175 0008 1B78     		ldrb	r3, [r3]
 176 000a DBB2     		uxtb	r3, r3
 177 000c 0121     		movs	r1, #1
 178 000e 0B43     		orrs	r3, r1
 179 0010 DBB2     		uxtb	r3, r3
 180 0012 1370     		strb	r3, [r2]
 134:Generated_Source\PSoC4/PrISM_2.c ****     #endif /* End PrISM_2_PULSE_TYPE_HARDCODED */
 135:Generated_Source\PSoC4/PrISM_2.c **** }
 181              		.loc 1 135 0
 182 0014 C046     		nop
 183 0016 BD46     		mov	sp, r7
 184              		@ sp needed
 185 0018 80BD     		pop	{r7, pc}
 186              	.L10:
 187 001a C046     		.align	2
 188              	.L9:
 189 001c 72000F40 		.word	1074724978
 190              		.cfi_endproc
 191              	.LFE4:
 192              		.size	PrISM_2_Enable, .-PrISM_2_Enable
 193              		.section	.text.PrISM_2_Stop,"ax",%progbits
 194              		.align	2
 195              		.global	PrISM_2_Stop
 196              		.code	16
 197              		.thumb_func
 198              		.type	PrISM_2_Stop, %function
 199              	PrISM_2_Stop:
 200              	.LFB5:
 136:Generated_Source\PSoC4/PrISM_2.c **** 
 137:Generated_Source\PSoC4/PrISM_2.c **** 
 138:Generated_Source\PSoC4/PrISM_2.c **** /*******************************************************************************
 139:Generated_Source\PSoC4/PrISM_2.c **** * FUNCTION NAME:   PrISM_2_Stop
 140:Generated_Source\PSoC4/PrISM_2.c **** ********************************************************************************
 141:Generated_Source\PSoC4/PrISM_2.c **** *
 142:Generated_Source\PSoC4/PrISM_2.c **** * Summary:
ARM GAS  C:\Users\Jack\AppData\Local\Temp\cc1zkWF2.s 			page 7


 143:Generated_Source\PSoC4/PrISM_2.c **** *  Stops PrISM computation. Outputs remain constant.
 144:Generated_Source\PSoC4/PrISM_2.c **** *
 145:Generated_Source\PSoC4/PrISM_2.c **** * Parameters:  
 146:Generated_Source\PSoC4/PrISM_2.c **** *  None.
 147:Generated_Source\PSoC4/PrISM_2.c **** *
 148:Generated_Source\PSoC4/PrISM_2.c **** * Return: 
 149:Generated_Source\PSoC4/PrISM_2.c **** *  None.
 150:Generated_Source\PSoC4/PrISM_2.c **** *
 151:Generated_Source\PSoC4/PrISM_2.c **** *******************************************************************************/
 152:Generated_Source\PSoC4/PrISM_2.c **** void PrISM_2_Stop(void) 
 153:Generated_Source\PSoC4/PrISM_2.c **** {
 201              		.loc 1 153 0
 202              		.cfi_startproc
 203              		@ args = 0, pretend = 0, frame = 0
 204              		@ frame_needed = 1, uses_anonymous_args = 0
 205 0000 80B5     		push	{r7, lr}
 206              		.cfi_def_cfa_offset 8
 207              		.cfi_offset 7, -8
 208              		.cfi_offset 14, -4
 209 0002 00AF     		add	r7, sp, #0
 210              		.cfi_def_cfa_register 7
 154:Generated_Source\PSoC4/PrISM_2.c ****     #if(!PrISM_2_PULSE_TYPE_HARDCODED)
 155:Generated_Source\PSoC4/PrISM_2.c ****         PrISM_2_CONTROL_REG &= (uint8)~PrISM_2_CTRL_ENABLE;
 211              		.loc 1 155 0
 212 0004 054A     		ldr	r2, .L12
 213 0006 054B     		ldr	r3, .L12
 214 0008 1B78     		ldrb	r3, [r3]
 215 000a DBB2     		uxtb	r3, r3
 216 000c 0121     		movs	r1, #1
 217 000e 8B43     		bics	r3, r1
 218 0010 DBB2     		uxtb	r3, r3
 219 0012 1370     		strb	r3, [r2]
 156:Generated_Source\PSoC4/PrISM_2.c ****     #else
 157:Generated_Source\PSoC4/PrISM_2.c ****         /* PulseTypeHardoded option enabled - to stop PrISM use enable input */
 158:Generated_Source\PSoC4/PrISM_2.c ****     #endif /* End $INSTANCE_NAME`_PULSE_TYPE_HARDCODED */
 159:Generated_Source\PSoC4/PrISM_2.c **** }
 220              		.loc 1 159 0
 221 0014 C046     		nop
 222 0016 BD46     		mov	sp, r7
 223              		@ sp needed
 224 0018 80BD     		pop	{r7, pc}
 225              	.L13:
 226 001a C046     		.align	2
 227              	.L12:
 228 001c 72000F40 		.word	1074724978
 229              		.cfi_endproc
 230              	.LFE5:
 231              		.size	PrISM_2_Stop, .-PrISM_2_Stop
 232              		.section	.text.PrISM_2_SetPulse0Mode,"ax",%progbits
 233              		.align	2
 234              		.global	PrISM_2_SetPulse0Mode
 235              		.code	16
 236              		.thumb_func
 237              		.type	PrISM_2_SetPulse0Mode, %function
 238              	PrISM_2_SetPulse0Mode:
 239              	.LFB6:
 160:Generated_Source\PSoC4/PrISM_2.c **** 
ARM GAS  C:\Users\Jack\AppData\Local\Temp\cc1zkWF2.s 			page 8


 161:Generated_Source\PSoC4/PrISM_2.c **** #if(!PrISM_2_PULSE_TYPE_HARDCODED)
 162:Generated_Source\PSoC4/PrISM_2.c **** 
 163:Generated_Source\PSoC4/PrISM_2.c **** 
 164:Generated_Source\PSoC4/PrISM_2.c ****     /***************************************************************************
 165:Generated_Source\PSoC4/PrISM_2.c ****     * FUNCTION NAME:     PrISM_2_SetPulse0Mode
 166:Generated_Source\PSoC4/PrISM_2.c ****     ****************************************************************************
 167:Generated_Source\PSoC4/PrISM_2.c ****     *
 168:Generated_Source\PSoC4/PrISM_2.c ****     * Summary:
 169:Generated_Source\PSoC4/PrISM_2.c ****     *  Sets the pulse density type for Density0. Less than or Equal(<=) or 
 170:Generated_Source\PSoC4/PrISM_2.c ****     *  Greater than or Equal(>=).
 171:Generated_Source\PSoC4/PrISM_2.c ****     *
 172:Generated_Source\PSoC4/PrISM_2.c ****     * Parameters:
 173:Generated_Source\PSoC4/PrISM_2.c ****     *  pulse0Type: Selected pulse density type.
 174:Generated_Source\PSoC4/PrISM_2.c ****     *
 175:Generated_Source\PSoC4/PrISM_2.c ****     * Return:
 176:Generated_Source\PSoC4/PrISM_2.c ****     *  None.
 177:Generated_Source\PSoC4/PrISM_2.c ****     *
 178:Generated_Source\PSoC4/PrISM_2.c ****     ***************************************************************************/
 179:Generated_Source\PSoC4/PrISM_2.c ****     void PrISM_2_SetPulse0Mode(uint8 pulse0Type) 
 180:Generated_Source\PSoC4/PrISM_2.c ****     {
 240              		.loc 1 180 0
 241              		.cfi_startproc
 242              		@ args = 0, pretend = 0, frame = 8
 243              		@ frame_needed = 1, uses_anonymous_args = 0
 244 0000 80B5     		push	{r7, lr}
 245              		.cfi_def_cfa_offset 8
 246              		.cfi_offset 7, -8
 247              		.cfi_offset 14, -4
 248 0002 82B0     		sub	sp, sp, #8
 249              		.cfi_def_cfa_offset 16
 250 0004 00AF     		add	r7, sp, #0
 251              		.cfi_def_cfa_register 7
 252 0006 0200     		movs	r2, r0
 253 0008 FB1D     		adds	r3, r7, #7
 254 000a 1A70     		strb	r2, [r3]
 181:Generated_Source\PSoC4/PrISM_2.c ****         if(pulse0Type == PrISM_2_GREATERTHAN_OR_EQUAL)
 255              		.loc 1 181 0
 256 000c FB1D     		adds	r3, r7, #7
 257 000e 1B78     		ldrb	r3, [r3]
 258 0010 012B     		cmp	r3, #1
 259 0012 08D1     		bne	.L15
 182:Generated_Source\PSoC4/PrISM_2.c ****         {
 183:Generated_Source\PSoC4/PrISM_2.c ****             PrISM_2_CONTROL_REG |= PrISM_2_CTRL_COMPARE_TYPE0_GREATER_THAN_OR_EQUAL;
 260              		.loc 1 183 0
 261 0014 0A4A     		ldr	r2, .L18
 262 0016 0A4B     		ldr	r3, .L18
 263 0018 1B78     		ldrb	r3, [r3]
 264 001a DBB2     		uxtb	r3, r3
 265 001c 0221     		movs	r1, #2
 266 001e 0B43     		orrs	r3, r1
 267 0020 DBB2     		uxtb	r3, r3
 268 0022 1370     		strb	r3, [r2]
 184:Generated_Source\PSoC4/PrISM_2.c ****         }
 185:Generated_Source\PSoC4/PrISM_2.c ****         else
 186:Generated_Source\PSoC4/PrISM_2.c ****         {
 187:Generated_Source\PSoC4/PrISM_2.c ****             PrISM_2_CONTROL_REG &= (uint8)~PrISM_2_CTRL_COMPARE_TYPE0_GREATER_THAN_OR_EQUAL;
 188:Generated_Source\PSoC4/PrISM_2.c ****         }
ARM GAS  C:\Users\Jack\AppData\Local\Temp\cc1zkWF2.s 			page 9


 189:Generated_Source\PSoC4/PrISM_2.c ****     }
 269              		.loc 1 189 0
 270 0024 07E0     		b	.L17
 271              	.L15:
 187:Generated_Source\PSoC4/PrISM_2.c ****         }
 272              		.loc 1 187 0
 273 0026 064A     		ldr	r2, .L18
 274 0028 054B     		ldr	r3, .L18
 275 002a 1B78     		ldrb	r3, [r3]
 276 002c DBB2     		uxtb	r3, r3
 277 002e 0221     		movs	r1, #2
 278 0030 8B43     		bics	r3, r1
 279 0032 DBB2     		uxtb	r3, r3
 280 0034 1370     		strb	r3, [r2]
 281              	.L17:
 282              		.loc 1 189 0
 283 0036 C046     		nop
 284 0038 BD46     		mov	sp, r7
 285 003a 02B0     		add	sp, sp, #8
 286              		@ sp needed
 287 003c 80BD     		pop	{r7, pc}
 288              	.L19:
 289 003e C046     		.align	2
 290              	.L18:
 291 0040 72000F40 		.word	1074724978
 292              		.cfi_endproc
 293              	.LFE6:
 294              		.size	PrISM_2_SetPulse0Mode, .-PrISM_2_SetPulse0Mode
 295              		.section	.text.PrISM_2_SetPulse1Mode,"ax",%progbits
 296              		.align	2
 297              		.global	PrISM_2_SetPulse1Mode
 298              		.code	16
 299              		.thumb_func
 300              		.type	PrISM_2_SetPulse1Mode, %function
 301              	PrISM_2_SetPulse1Mode:
 302              	.LFB7:
 190:Generated_Source\PSoC4/PrISM_2.c ****     
 191:Generated_Source\PSoC4/PrISM_2.c ****     
 192:Generated_Source\PSoC4/PrISM_2.c ****     /***************************************************************************
 193:Generated_Source\PSoC4/PrISM_2.c ****     * FUNCTION NAME:   PrISM_2_SetPulse1Mode
 194:Generated_Source\PSoC4/PrISM_2.c ****     ****************************************************************************
 195:Generated_Source\PSoC4/PrISM_2.c ****     *
 196:Generated_Source\PSoC4/PrISM_2.c ****     * Summary:
 197:Generated_Source\PSoC4/PrISM_2.c ****     *  Sets the pulse density type for Density1. Less than or Equal(<=) or 
 198:Generated_Source\PSoC4/PrISM_2.c ****     *  Greater than or Equal(>=).
 199:Generated_Source\PSoC4/PrISM_2.c ****     *
 200:Generated_Source\PSoC4/PrISM_2.c ****     * Parameters:  
 201:Generated_Source\PSoC4/PrISM_2.c ****     *  pulse1Type: Selected pulse density type.
 202:Generated_Source\PSoC4/PrISM_2.c ****     *
 203:Generated_Source\PSoC4/PrISM_2.c ****     * Return:
 204:Generated_Source\PSoC4/PrISM_2.c ****     *  None.
 205:Generated_Source\PSoC4/PrISM_2.c ****     *
 206:Generated_Source\PSoC4/PrISM_2.c ****     ***************************************************************************/
 207:Generated_Source\PSoC4/PrISM_2.c ****     void PrISM_2_SetPulse1Mode(uint8 pulse1Type) 
 208:Generated_Source\PSoC4/PrISM_2.c ****     {
 303              		.loc 1 208 0
 304              		.cfi_startproc
ARM GAS  C:\Users\Jack\AppData\Local\Temp\cc1zkWF2.s 			page 10


 305              		@ args = 0, pretend = 0, frame = 8
 306              		@ frame_needed = 1, uses_anonymous_args = 0
 307 0000 80B5     		push	{r7, lr}
 308              		.cfi_def_cfa_offset 8
 309              		.cfi_offset 7, -8
 310              		.cfi_offset 14, -4
 311 0002 82B0     		sub	sp, sp, #8
 312              		.cfi_def_cfa_offset 16
 313 0004 00AF     		add	r7, sp, #0
 314              		.cfi_def_cfa_register 7
 315 0006 0200     		movs	r2, r0
 316 0008 FB1D     		adds	r3, r7, #7
 317 000a 1A70     		strb	r2, [r3]
 209:Generated_Source\PSoC4/PrISM_2.c ****         if(pulse1Type == PrISM_2_GREATERTHAN_OR_EQUAL)
 318              		.loc 1 209 0
 319 000c FB1D     		adds	r3, r7, #7
 320 000e 1B78     		ldrb	r3, [r3]
 321 0010 012B     		cmp	r3, #1
 322 0012 08D1     		bne	.L21
 210:Generated_Source\PSoC4/PrISM_2.c ****         {
 211:Generated_Source\PSoC4/PrISM_2.c ****             PrISM_2_CONTROL_REG |= PrISM_2_CTRL_COMPARE_TYPE1_GREATER_THAN_OR_EQUAL;
 323              		.loc 1 211 0
 324 0014 0A4A     		ldr	r2, .L24
 325 0016 0A4B     		ldr	r3, .L24
 326 0018 1B78     		ldrb	r3, [r3]
 327 001a DBB2     		uxtb	r3, r3
 328 001c 0421     		movs	r1, #4
 329 001e 0B43     		orrs	r3, r1
 330 0020 DBB2     		uxtb	r3, r3
 331 0022 1370     		strb	r3, [r2]
 212:Generated_Source\PSoC4/PrISM_2.c ****         }
 213:Generated_Source\PSoC4/PrISM_2.c ****         else
 214:Generated_Source\PSoC4/PrISM_2.c ****         {
 215:Generated_Source\PSoC4/PrISM_2.c ****             PrISM_2_CONTROL_REG &= (uint8)~PrISM_2_CTRL_COMPARE_TYPE1_GREATER_THAN_OR_EQUAL;
 216:Generated_Source\PSoC4/PrISM_2.c ****         }
 217:Generated_Source\PSoC4/PrISM_2.c ****     }
 332              		.loc 1 217 0
 333 0024 07E0     		b	.L23
 334              	.L21:
 215:Generated_Source\PSoC4/PrISM_2.c ****         }
 335              		.loc 1 215 0
 336 0026 064A     		ldr	r2, .L24
 337 0028 054B     		ldr	r3, .L24
 338 002a 1B78     		ldrb	r3, [r3]
 339 002c DBB2     		uxtb	r3, r3
 340 002e 0421     		movs	r1, #4
 341 0030 8B43     		bics	r3, r1
 342 0032 DBB2     		uxtb	r3, r3
 343 0034 1370     		strb	r3, [r2]
 344              	.L23:
 345              		.loc 1 217 0
 346 0036 C046     		nop
 347 0038 BD46     		mov	sp, r7
 348 003a 02B0     		add	sp, sp, #8
 349              		@ sp needed
 350 003c 80BD     		pop	{r7, pc}
 351              	.L25:
ARM GAS  C:\Users\Jack\AppData\Local\Temp\cc1zkWF2.s 			page 11


 352 003e C046     		.align	2
 353              	.L24:
 354 0040 72000F40 		.word	1074724978
 355              		.cfi_endproc
 356              	.LFE7:
 357              		.size	PrISM_2_SetPulse1Mode, .-PrISM_2_SetPulse1Mode
 358              		.section	.text.PrISM_2_ReadSeed,"ax",%progbits
 359              		.align	2
 360              		.global	PrISM_2_ReadSeed
 361              		.code	16
 362              		.thumb_func
 363              		.type	PrISM_2_ReadSeed, %function
 364              	PrISM_2_ReadSeed:
 365              	.LFB8:
 218:Generated_Source\PSoC4/PrISM_2.c **** 
 219:Generated_Source\PSoC4/PrISM_2.c **** #endif /* End PrISM_2_PULSE_TYPE_HARDCODED == 0 */
 220:Generated_Source\PSoC4/PrISM_2.c **** 
 221:Generated_Source\PSoC4/PrISM_2.c **** 
 222:Generated_Source\PSoC4/PrISM_2.c **** /*******************************************************************************
 223:Generated_Source\PSoC4/PrISM_2.c **** * FUNCTION NAME:   PrISM_2_ReadSeed
 224:Generated_Source\PSoC4/PrISM_2.c **** ********************************************************************************
 225:Generated_Source\PSoC4/PrISM_2.c **** *
 226:Generated_Source\PSoC4/PrISM_2.c **** * Summary:
 227:Generated_Source\PSoC4/PrISM_2.c **** *  Reads the PrISM Seed register.
 228:Generated_Source\PSoC4/PrISM_2.c **** *
 229:Generated_Source\PSoC4/PrISM_2.c **** * Parameters:
 230:Generated_Source\PSoC4/PrISM_2.c **** *  None.
 231:Generated_Source\PSoC4/PrISM_2.c **** *
 232:Generated_Source\PSoC4/PrISM_2.c **** * Return:
 233:Generated_Source\PSoC4/PrISM_2.c **** *  Current Period register value.
 234:Generated_Source\PSoC4/PrISM_2.c **** *
 235:Generated_Source\PSoC4/PrISM_2.c **** *******************************************************************************/
 236:Generated_Source\PSoC4/PrISM_2.c **** uint8 PrISM_2_ReadSeed(void) 
 237:Generated_Source\PSoC4/PrISM_2.c **** {
 366              		.loc 1 237 0
 367              		.cfi_startproc
 368              		@ args = 0, pretend = 0, frame = 0
 369              		@ frame_needed = 1, uses_anonymous_args = 0
 370 0000 80B5     		push	{r7, lr}
 371              		.cfi_def_cfa_offset 8
 372              		.cfi_offset 7, -8
 373              		.cfi_offset 14, -4
 374 0002 00AF     		add	r7, sp, #0
 375              		.cfi_def_cfa_register 7
 238:Generated_Source\PSoC4/PrISM_2.c ****     return( CY_GET_REG8(PrISM_2_SEED_PTR) );
 376              		.loc 1 238 0
 377 0004 024B     		ldr	r3, .L28
 378 0006 1B78     		ldrb	r3, [r3]
 379 0008 DBB2     		uxtb	r3, r3
 239:Generated_Source\PSoC4/PrISM_2.c **** }
 380              		.loc 1 239 0
 381 000a 1800     		movs	r0, r3
 382 000c BD46     		mov	sp, r7
 383              		@ sp needed
 384 000e 80BD     		pop	{r7, pc}
 385              	.L29:
 386              		.align	2
ARM GAS  C:\Users\Jack\AppData\Local\Temp\cc1zkWF2.s 			page 12


 387              	.L28:
 388 0010 02000F40 		.word	1074724866
 389              		.cfi_endproc
 390              	.LFE8:
 391              		.size	PrISM_2_ReadSeed, .-PrISM_2_ReadSeed
 392              		.section	.text.PrISM_2_WriteSeed,"ax",%progbits
 393              		.align	2
 394              		.global	PrISM_2_WriteSeed
 395              		.code	16
 396              		.thumb_func
 397              		.type	PrISM_2_WriteSeed, %function
 398              	PrISM_2_WriteSeed:
 399              	.LFB9:
 240:Generated_Source\PSoC4/PrISM_2.c **** 
 241:Generated_Source\PSoC4/PrISM_2.c **** 
 242:Generated_Source\PSoC4/PrISM_2.c **** /*******************************************************************************
 243:Generated_Source\PSoC4/PrISM_2.c **** * FUNCTION NAME:   PrISM_2_WriteSeed
 244:Generated_Source\PSoC4/PrISM_2.c **** ********************************************************************************
 245:Generated_Source\PSoC4/PrISM_2.c **** *
 246:Generated_Source\PSoC4/PrISM_2.c **** * Summary:
 247:Generated_Source\PSoC4/PrISM_2.c **** *  Writes the PrISM Seed register with the start value.
 248:Generated_Source\PSoC4/PrISM_2.c **** *
 249:Generated_Source\PSoC4/PrISM_2.c **** * Parameters:
 250:Generated_Source\PSoC4/PrISM_2.c **** *  seed: Seed register value.
 251:Generated_Source\PSoC4/PrISM_2.c **** *
 252:Generated_Source\PSoC4/PrISM_2.c **** * Return:
 253:Generated_Source\PSoC4/PrISM_2.c **** *  None.
 254:Generated_Source\PSoC4/PrISM_2.c **** *
 255:Generated_Source\PSoC4/PrISM_2.c **** *******************************************************************************/
 256:Generated_Source\PSoC4/PrISM_2.c **** void PrISM_2_WriteSeed(uint8 seed) 
 257:Generated_Source\PSoC4/PrISM_2.c **** {
 400              		.loc 1 257 0
 401              		.cfi_startproc
 402              		@ args = 0, pretend = 0, frame = 8
 403              		@ frame_needed = 1, uses_anonymous_args = 0
 404 0000 80B5     		push	{r7, lr}
 405              		.cfi_def_cfa_offset 8
 406              		.cfi_offset 7, -8
 407              		.cfi_offset 14, -4
 408 0002 82B0     		sub	sp, sp, #8
 409              		.cfi_def_cfa_offset 16
 410 0004 00AF     		add	r7, sp, #0
 411              		.cfi_def_cfa_register 7
 412 0006 0200     		movs	r2, r0
 413 0008 FB1D     		adds	r3, r7, #7
 414 000a 1A70     		strb	r2, [r3]
 258:Generated_Source\PSoC4/PrISM_2.c ****     if(seed != 0u)
 415              		.loc 1 258 0
 416 000c FB1D     		adds	r3, r7, #7
 417 000e 1B78     		ldrb	r3, [r3]
 418 0010 002B     		cmp	r3, #0
 419 0012 07D0     		beq	.L32
 259:Generated_Source\PSoC4/PrISM_2.c ****     {
 260:Generated_Source\PSoC4/PrISM_2.c ****         CY_SET_REG8(PrISM_2_SEED_COPY_PTR, seed);
 420              		.loc 1 260 0
 421 0014 054A     		ldr	r2, .L33
 422 0016 FB1D     		adds	r3, r7, #7
ARM GAS  C:\Users\Jack\AppData\Local\Temp\cc1zkWF2.s 			page 13


 423 0018 1B78     		ldrb	r3, [r3]
 424 001a 1370     		strb	r3, [r2]
 261:Generated_Source\PSoC4/PrISM_2.c ****         CY_SET_REG8(PrISM_2_SEED_PTR, seed);
 425              		.loc 1 261 0
 426 001c 044A     		ldr	r2, .L33+4
 427 001e FB1D     		adds	r3, r7, #7
 428 0020 1B78     		ldrb	r3, [r3]
 429 0022 1370     		strb	r3, [r2]
 430              	.L32:
 262:Generated_Source\PSoC4/PrISM_2.c ****     }
 263:Generated_Source\PSoC4/PrISM_2.c **** }
 431              		.loc 1 263 0
 432 0024 C046     		nop
 433 0026 BD46     		mov	sp, r7
 434 0028 02B0     		add	sp, sp, #8
 435              		@ sp needed
 436 002a 80BD     		pop	{r7, pc}
 437              	.L34:
 438              		.align	2
 439              	.L33:
 440 002c 42000F40 		.word	1074724930
 441 0030 02000F40 		.word	1074724866
 442              		.cfi_endproc
 443              	.LFE9:
 444              		.size	PrISM_2_WriteSeed, .-PrISM_2_WriteSeed
 445              		.section	.text.PrISM_2_ReadPolynomial,"ax",%progbits
 446              		.align	2
 447              		.global	PrISM_2_ReadPolynomial
 448              		.code	16
 449              		.thumb_func
 450              		.type	PrISM_2_ReadPolynomial, %function
 451              	PrISM_2_ReadPolynomial:
 452              	.LFB10:
 264:Generated_Source\PSoC4/PrISM_2.c **** 
 265:Generated_Source\PSoC4/PrISM_2.c **** 
 266:Generated_Source\PSoC4/PrISM_2.c **** /*******************************************************************************
 267:Generated_Source\PSoC4/PrISM_2.c **** * FUNCTION NAME:   PrISM_2_ReadPolynomial
 268:Generated_Source\PSoC4/PrISM_2.c **** ********************************************************************************
 269:Generated_Source\PSoC4/PrISM_2.c **** *
 270:Generated_Source\PSoC4/PrISM_2.c **** * Summary:
 271:Generated_Source\PSoC4/PrISM_2.c **** *  Reads the PrISM polynomial.
 272:Generated_Source\PSoC4/PrISM_2.c **** *
 273:Generated_Source\PSoC4/PrISM_2.c **** * Parameters:
 274:Generated_Source\PSoC4/PrISM_2.c **** *  None.
 275:Generated_Source\PSoC4/PrISM_2.c **** *
 276:Generated_Source\PSoC4/PrISM_2.c **** * Return:
 277:Generated_Source\PSoC4/PrISM_2.c **** *  PrISM polynomial.
 278:Generated_Source\PSoC4/PrISM_2.c **** *
 279:Generated_Source\PSoC4/PrISM_2.c **** *******************************************************************************/
 280:Generated_Source\PSoC4/PrISM_2.c **** uint8 PrISM_2_ReadPolynomial(void) 
 281:Generated_Source\PSoC4/PrISM_2.c **** {
 453              		.loc 1 281 0
 454              		.cfi_startproc
 455              		@ args = 0, pretend = 0, frame = 0
 456              		@ frame_needed = 1, uses_anonymous_args = 0
 457 0000 80B5     		push	{r7, lr}
 458              		.cfi_def_cfa_offset 8
ARM GAS  C:\Users\Jack\AppData\Local\Temp\cc1zkWF2.s 			page 14


 459              		.cfi_offset 7, -8
 460              		.cfi_offset 14, -4
 461 0002 00AF     		add	r7, sp, #0
 462              		.cfi_def_cfa_register 7
 282:Generated_Source\PSoC4/PrISM_2.c ****     return( CY_GET_REG8(PrISM_2_POLYNOM_PTR) );
 463              		.loc 1 282 0
 464 0004 024B     		ldr	r3, .L37
 465 0006 1B78     		ldrb	r3, [r3]
 466 0008 DBB2     		uxtb	r3, r3
 283:Generated_Source\PSoC4/PrISM_2.c **** }
 467              		.loc 1 283 0
 468 000a 1800     		movs	r0, r3
 469 000c BD46     		mov	sp, r7
 470              		@ sp needed
 471 000e 80BD     		pop	{r7, pc}
 472              	.L38:
 473              		.align	2
 474              	.L37:
 475 0010 12000F40 		.word	1074724882
 476              		.cfi_endproc
 477              	.LFE10:
 478              		.size	PrISM_2_ReadPolynomial, .-PrISM_2_ReadPolynomial
 479              		.section	.text.PrISM_2_WritePolynomial,"ax",%progbits
 480              		.align	2
 481              		.global	PrISM_2_WritePolynomial
 482              		.code	16
 483              		.thumb_func
 484              		.type	PrISM_2_WritePolynomial, %function
 485              	PrISM_2_WritePolynomial:
 486              	.LFB11:
 284:Generated_Source\PSoC4/PrISM_2.c **** 
 285:Generated_Source\PSoC4/PrISM_2.c **** 
 286:Generated_Source\PSoC4/PrISM_2.c **** /*******************************************************************************
 287:Generated_Source\PSoC4/PrISM_2.c **** * FUNCTION NAME:   PrISM_2_WritePolynomial
 288:Generated_Source\PSoC4/PrISM_2.c **** ********************************************************************************
 289:Generated_Source\PSoC4/PrISM_2.c **** *
 290:Generated_Source\PSoC4/PrISM_2.c **** * Summary:
 291:Generated_Source\PSoC4/PrISM_2.c **** *  Writes the PrISM polynomial.
 292:Generated_Source\PSoC4/PrISM_2.c **** *
 293:Generated_Source\PSoC4/PrISM_2.c **** * Parameters:
 294:Generated_Source\PSoC4/PrISM_2.c **** *  polynomial: PrISM polynomial.
 295:Generated_Source\PSoC4/PrISM_2.c **** *
 296:Generated_Source\PSoC4/PrISM_2.c **** * Return:
 297:Generated_Source\PSoC4/PrISM_2.c **** *  None.
 298:Generated_Source\PSoC4/PrISM_2.c **** *
 299:Generated_Source\PSoC4/PrISM_2.c **** *******************************************************************************/
 300:Generated_Source\PSoC4/PrISM_2.c **** void PrISM_2_WritePolynomial(uint8 polynomial) \
 301:Generated_Source\PSoC4/PrISM_2.c ****                                                                 
 302:Generated_Source\PSoC4/PrISM_2.c **** {
 487              		.loc 1 302 0
 488              		.cfi_startproc
 489              		@ args = 0, pretend = 0, frame = 8
 490              		@ frame_needed = 1, uses_anonymous_args = 0
 491 0000 80B5     		push	{r7, lr}
 492              		.cfi_def_cfa_offset 8
 493              		.cfi_offset 7, -8
 494              		.cfi_offset 14, -4
ARM GAS  C:\Users\Jack\AppData\Local\Temp\cc1zkWF2.s 			page 15


 495 0002 82B0     		sub	sp, sp, #8
 496              		.cfi_def_cfa_offset 16
 497 0004 00AF     		add	r7, sp, #0
 498              		.cfi_def_cfa_register 7
 499 0006 0200     		movs	r2, r0
 500 0008 FB1D     		adds	r3, r7, #7
 501 000a 1A70     		strb	r2, [r3]
 303:Generated_Source\PSoC4/PrISM_2.c ****     CY_SET_REG8(PrISM_2_POLYNOM_PTR, polynomial);
 502              		.loc 1 303 0
 503 000c 034A     		ldr	r2, .L40
 504 000e FB1D     		adds	r3, r7, #7
 505 0010 1B78     		ldrb	r3, [r3]
 506 0012 1370     		strb	r3, [r2]
 304:Generated_Source\PSoC4/PrISM_2.c ****     
 305:Generated_Source\PSoC4/PrISM_2.c **** }
 507              		.loc 1 305 0
 508 0014 C046     		nop
 509 0016 BD46     		mov	sp, r7
 510 0018 02B0     		add	sp, sp, #8
 511              		@ sp needed
 512 001a 80BD     		pop	{r7, pc}
 513              	.L41:
 514              		.align	2
 515              	.L40:
 516 001c 12000F40 		.word	1074724882
 517              		.cfi_endproc
 518              	.LFE11:
 519              		.size	PrISM_2_WritePolynomial, .-PrISM_2_WritePolynomial
 520              		.section	.text.PrISM_2_ReadPulse0,"ax",%progbits
 521              		.align	2
 522              		.global	PrISM_2_ReadPulse0
 523              		.code	16
 524              		.thumb_func
 525              		.type	PrISM_2_ReadPulse0, %function
 526              	PrISM_2_ReadPulse0:
 527              	.LFB12:
 306:Generated_Source\PSoC4/PrISM_2.c **** 
 307:Generated_Source\PSoC4/PrISM_2.c **** 
 308:Generated_Source\PSoC4/PrISM_2.c **** /*******************************************************************************
 309:Generated_Source\PSoC4/PrISM_2.c **** * FUNCTION NAME:   PrISM_2_ReadPulse0
 310:Generated_Source\PSoC4/PrISM_2.c **** ********************************************************************************
 311:Generated_Source\PSoC4/PrISM_2.c **** *
 312:Generated_Source\PSoC4/PrISM_2.c **** * Summary:
 313:Generated_Source\PSoC4/PrISM_2.c **** *  Reads the PrISM Pulse Density0 register.
 314:Generated_Source\PSoC4/PrISM_2.c **** *
 315:Generated_Source\PSoC4/PrISM_2.c **** * Parameters:
 316:Generated_Source\PSoC4/PrISM_2.c **** *  None.
 317:Generated_Source\PSoC4/PrISM_2.c **** *
 318:Generated_Source\PSoC4/PrISM_2.c **** * Return:
 319:Generated_Source\PSoC4/PrISM_2.c **** *  Pulse Density0 register value.
 320:Generated_Source\PSoC4/PrISM_2.c **** *
 321:Generated_Source\PSoC4/PrISM_2.c **** *******************************************************************************/
 322:Generated_Source\PSoC4/PrISM_2.c **** uint8 PrISM_2_ReadPulse0(void) 
 323:Generated_Source\PSoC4/PrISM_2.c **** {
 528              		.loc 1 323 0
 529              		.cfi_startproc
 530              		@ args = 0, pretend = 0, frame = 0
ARM GAS  C:\Users\Jack\AppData\Local\Temp\cc1zkWF2.s 			page 16


 531              		@ frame_needed = 1, uses_anonymous_args = 0
 532 0000 80B5     		push	{r7, lr}
 533              		.cfi_def_cfa_offset 8
 534              		.cfi_offset 7, -8
 535              		.cfi_offset 14, -4
 536 0002 00AF     		add	r7, sp, #0
 537              		.cfi_def_cfa_register 7
 324:Generated_Source\PSoC4/PrISM_2.c ****     return( CY_GET_REG8(PrISM_2_DENSITY0_PTR) );
 538              		.loc 1 324 0
 539 0004 024B     		ldr	r3, .L44
 540 0006 1B78     		ldrb	r3, [r3]
 541 0008 DBB2     		uxtb	r3, r3
 325:Generated_Source\PSoC4/PrISM_2.c **** }
 542              		.loc 1 325 0
 543 000a 1800     		movs	r0, r3
 544 000c BD46     		mov	sp, r7
 545              		@ sp needed
 546 000e 80BD     		pop	{r7, pc}
 547              	.L45:
 548              		.align	2
 549              	.L44:
 550 0010 22000F40 		.word	1074724898
 551              		.cfi_endproc
 552              	.LFE12:
 553              		.size	PrISM_2_ReadPulse0, .-PrISM_2_ReadPulse0
 554              		.section	.text.PrISM_2_WritePulse0,"ax",%progbits
 555              		.align	2
 556              		.global	PrISM_2_WritePulse0
 557              		.code	16
 558              		.thumb_func
 559              		.type	PrISM_2_WritePulse0, %function
 560              	PrISM_2_WritePulse0:
 561              	.LFB13:
 326:Generated_Source\PSoC4/PrISM_2.c **** 
 327:Generated_Source\PSoC4/PrISM_2.c **** 
 328:Generated_Source\PSoC4/PrISM_2.c **** /*******************************************************************************
 329:Generated_Source\PSoC4/PrISM_2.c **** * FUNCTION NAME:   PrISM_2_WritePulse0
 330:Generated_Source\PSoC4/PrISM_2.c **** ********************************************************************************
 331:Generated_Source\PSoC4/PrISM_2.c **** *
 332:Generated_Source\PSoC4/PrISM_2.c **** * Summary:
 333:Generated_Source\PSoC4/PrISM_2.c **** *  Writes the PrISM Pulse Density0 register with the Pulse Density value.
 334:Generated_Source\PSoC4/PrISM_2.c **** *
 335:Generated_Source\PSoC4/PrISM_2.c **** * Parameters:
 336:Generated_Source\PSoC4/PrISM_2.c **** *  pulseDensity0: Pulse Density value.
 337:Generated_Source\PSoC4/PrISM_2.c **** *
 338:Generated_Source\PSoC4/PrISM_2.c **** * Return:
 339:Generated_Source\PSoC4/PrISM_2.c **** *  None.
 340:Generated_Source\PSoC4/PrISM_2.c **** *
 341:Generated_Source\PSoC4/PrISM_2.c **** *******************************************************************************/
 342:Generated_Source\PSoC4/PrISM_2.c **** void PrISM_2_WritePulse0(uint8 pulseDensity0) \
 343:Generated_Source\PSoC4/PrISM_2.c ****                                                                 
 344:Generated_Source\PSoC4/PrISM_2.c **** {
 562              		.loc 1 344 0
 563              		.cfi_startproc
 564              		@ args = 0, pretend = 0, frame = 8
 565              		@ frame_needed = 1, uses_anonymous_args = 0
 566 0000 80B5     		push	{r7, lr}
ARM GAS  C:\Users\Jack\AppData\Local\Temp\cc1zkWF2.s 			page 17


 567              		.cfi_def_cfa_offset 8
 568              		.cfi_offset 7, -8
 569              		.cfi_offset 14, -4
 570 0002 82B0     		sub	sp, sp, #8
 571              		.cfi_def_cfa_offset 16
 572 0004 00AF     		add	r7, sp, #0
 573              		.cfi_def_cfa_register 7
 574 0006 0200     		movs	r2, r0
 575 0008 FB1D     		adds	r3, r7, #7
 576 000a 1A70     		strb	r2, [r3]
 345:Generated_Source\PSoC4/PrISM_2.c ****     CY_SET_REG8(PrISM_2_DENSITY0_PTR, pulseDensity0);
 577              		.loc 1 345 0
 578 000c 034A     		ldr	r2, .L47
 579 000e FB1D     		adds	r3, r7, #7
 580 0010 1B78     		ldrb	r3, [r3]
 581 0012 1370     		strb	r3, [r2]
 346:Generated_Source\PSoC4/PrISM_2.c **** }
 582              		.loc 1 346 0
 583 0014 C046     		nop
 584 0016 BD46     		mov	sp, r7
 585 0018 02B0     		add	sp, sp, #8
 586              		@ sp needed
 587 001a 80BD     		pop	{r7, pc}
 588              	.L48:
 589              		.align	2
 590              	.L47:
 591 001c 22000F40 		.word	1074724898
 592              		.cfi_endproc
 593              	.LFE13:
 594              		.size	PrISM_2_WritePulse0, .-PrISM_2_WritePulse0
 595              		.section	.text.PrISM_2_ReadPulse1,"ax",%progbits
 596              		.align	2
 597              		.global	PrISM_2_ReadPulse1
 598              		.code	16
 599              		.thumb_func
 600              		.type	PrISM_2_ReadPulse1, %function
 601              	PrISM_2_ReadPulse1:
 602              	.LFB14:
 347:Generated_Source\PSoC4/PrISM_2.c **** 
 348:Generated_Source\PSoC4/PrISM_2.c **** 
 349:Generated_Source\PSoC4/PrISM_2.c **** /*******************************************************************************
 350:Generated_Source\PSoC4/PrISM_2.c **** * FUNCTION NAME:   PrISM_2_ReadPulse1
 351:Generated_Source\PSoC4/PrISM_2.c **** ********************************************************************************
 352:Generated_Source\PSoC4/PrISM_2.c **** *
 353:Generated_Source\PSoC4/PrISM_2.c **** * Summary:
 354:Generated_Source\PSoC4/PrISM_2.c **** *  Reads the PrISM Pulse Density1 register.
 355:Generated_Source\PSoC4/PrISM_2.c **** *
 356:Generated_Source\PSoC4/PrISM_2.c **** * Parameters:
 357:Generated_Source\PSoC4/PrISM_2.c **** *  None.
 358:Generated_Source\PSoC4/PrISM_2.c **** *
 359:Generated_Source\PSoC4/PrISM_2.c **** * Return:
 360:Generated_Source\PSoC4/PrISM_2.c **** *  Pulse Density1 register value.
 361:Generated_Source\PSoC4/PrISM_2.c **** *
 362:Generated_Source\PSoC4/PrISM_2.c **** *******************************************************************************/
 363:Generated_Source\PSoC4/PrISM_2.c **** uint8 PrISM_2_ReadPulse1(void) 
 364:Generated_Source\PSoC4/PrISM_2.c **** {
 603              		.loc 1 364 0
ARM GAS  C:\Users\Jack\AppData\Local\Temp\cc1zkWF2.s 			page 18


 604              		.cfi_startproc
 605              		@ args = 0, pretend = 0, frame = 0
 606              		@ frame_needed = 1, uses_anonymous_args = 0
 607 0000 80B5     		push	{r7, lr}
 608              		.cfi_def_cfa_offset 8
 609              		.cfi_offset 7, -8
 610              		.cfi_offset 14, -4
 611 0002 00AF     		add	r7, sp, #0
 612              		.cfi_def_cfa_register 7
 365:Generated_Source\PSoC4/PrISM_2.c ****     return( CY_GET_REG8(PrISM_2_DENSITY1_PTR) );
 613              		.loc 1 365 0
 614 0004 024B     		ldr	r3, .L51
 615 0006 1B78     		ldrb	r3, [r3]
 616 0008 DBB2     		uxtb	r3, r3
 366:Generated_Source\PSoC4/PrISM_2.c **** }
 617              		.loc 1 366 0
 618 000a 1800     		movs	r0, r3
 619 000c BD46     		mov	sp, r7
 620              		@ sp needed
 621 000e 80BD     		pop	{r7, pc}
 622              	.L52:
 623              		.align	2
 624              	.L51:
 625 0010 32000F40 		.word	1074724914
 626              		.cfi_endproc
 627              	.LFE14:
 628              		.size	PrISM_2_ReadPulse1, .-PrISM_2_ReadPulse1
 629              		.section	.text.PrISM_2_WritePulse1,"ax",%progbits
 630              		.align	2
 631              		.global	PrISM_2_WritePulse1
 632              		.code	16
 633              		.thumb_func
 634              		.type	PrISM_2_WritePulse1, %function
 635              	PrISM_2_WritePulse1:
 636              	.LFB15:
 367:Generated_Source\PSoC4/PrISM_2.c **** 
 368:Generated_Source\PSoC4/PrISM_2.c **** 
 369:Generated_Source\PSoC4/PrISM_2.c **** /*******************************************************************************
 370:Generated_Source\PSoC4/PrISM_2.c **** * FUNCTION NAME:   PrISM_2_WritePulse1
 371:Generated_Source\PSoC4/PrISM_2.c **** ********************************************************************************
 372:Generated_Source\PSoC4/PrISM_2.c **** *
 373:Generated_Source\PSoC4/PrISM_2.c **** * Summary:
 374:Generated_Source\PSoC4/PrISM_2.c **** *  Writes the PrISM Pulse Density1 register with the Pulse Density value.
 375:Generated_Source\PSoC4/PrISM_2.c **** *
 376:Generated_Source\PSoC4/PrISM_2.c **** * Parameters:
 377:Generated_Source\PSoC4/PrISM_2.c **** *  pulseDensity1: Pulse Density value.
 378:Generated_Source\PSoC4/PrISM_2.c **** *
 379:Generated_Source\PSoC4/PrISM_2.c **** * Return:
 380:Generated_Source\PSoC4/PrISM_2.c **** *  None.
 381:Generated_Source\PSoC4/PrISM_2.c **** *
 382:Generated_Source\PSoC4/PrISM_2.c **** *******************************************************************************/
 383:Generated_Source\PSoC4/PrISM_2.c **** void PrISM_2_WritePulse1(uint8 pulseDensity1) \
 384:Generated_Source\PSoC4/PrISM_2.c ****                                                                     
 385:Generated_Source\PSoC4/PrISM_2.c **** {
 637              		.loc 1 385 0
 638              		.cfi_startproc
 639              		@ args = 0, pretend = 0, frame = 8
ARM GAS  C:\Users\Jack\AppData\Local\Temp\cc1zkWF2.s 			page 19


 640              		@ frame_needed = 1, uses_anonymous_args = 0
 641 0000 80B5     		push	{r7, lr}
 642              		.cfi_def_cfa_offset 8
 643              		.cfi_offset 7, -8
 644              		.cfi_offset 14, -4
 645 0002 82B0     		sub	sp, sp, #8
 646              		.cfi_def_cfa_offset 16
 647 0004 00AF     		add	r7, sp, #0
 648              		.cfi_def_cfa_register 7
 649 0006 0200     		movs	r2, r0
 650 0008 FB1D     		adds	r3, r7, #7
 651 000a 1A70     		strb	r2, [r3]
 386:Generated_Source\PSoC4/PrISM_2.c ****     CY_SET_REG8(PrISM_2_DENSITY1_PTR, pulseDensity1);
 652              		.loc 1 386 0
 653 000c 034A     		ldr	r2, .L54
 654 000e FB1D     		adds	r3, r7, #7
 655 0010 1B78     		ldrb	r3, [r3]
 656 0012 1370     		strb	r3, [r2]
 387:Generated_Source\PSoC4/PrISM_2.c **** }
 657              		.loc 1 387 0
 658 0014 C046     		nop
 659 0016 BD46     		mov	sp, r7
 660 0018 02B0     		add	sp, sp, #8
 661              		@ sp needed
 662 001a 80BD     		pop	{r7, pc}
 663              	.L55:
 664              		.align	2
 665              	.L54:
 666 001c 32000F40 		.word	1074724914
 667              		.cfi_endproc
 668              	.LFE15:
 669              		.size	PrISM_2_WritePulse1, .-PrISM_2_WritePulse1
 670              		.text
 671              	.Letext0:
 672              		.file 2 "Generated_Source\\PSoC4\\cytypes.h"